
vigil.exe:     file format elf64-x86-64


Disassembly of section .init:

0000000000002000 <_init>:
    2000:	f3 0f 1e fa          	endbr64 
    2004:	48 83 ec 08          	sub    rsp,0x8
    2008:	48 8b 05 c9 ef 00 00 	mov    rax,QWORD PTR [rip+0xefc9]        # 10fd8 <__gmon_start__>
    200f:	48 85 c0             	test   rax,rax
    2012:	74 02                	je     2016 <_init+0x16>
    2014:	ff d0                	call   rax
    2016:	48 83 c4 08          	add    rsp,0x8
    201a:	c3                   	ret    

Disassembly of section .plt:

0000000000002020 <.plt>:
    2020:	ff 35 92 ed 00 00    	push   QWORD PTR [rip+0xed92]        # 10db8 <_GLOBAL_OFFSET_TABLE_+0x8>
    2026:	f2 ff 25 93 ed 00 00 	bnd jmp QWORD PTR [rip+0xed93]        # 10dc0 <_GLOBAL_OFFSET_TABLE_+0x10>
    202d:	0f 1f 00             	nop    DWORD PTR [rax]
    2030:	f3 0f 1e fa          	endbr64 
    2034:	68 00 00 00 00       	push   0x0
    2039:	f2 e9 e1 ff ff ff    	bnd jmp 2020 <_init+0x20>
    203f:	90                   	nop
    2040:	f3 0f 1e fa          	endbr64 
    2044:	68 01 00 00 00       	push   0x1
    2049:	f2 e9 d1 ff ff ff    	bnd jmp 2020 <_init+0x20>
    204f:	90                   	nop
    2050:	f3 0f 1e fa          	endbr64 
    2054:	68 02 00 00 00       	push   0x2
    2059:	f2 e9 c1 ff ff ff    	bnd jmp 2020 <_init+0x20>
    205f:	90                   	nop
    2060:	f3 0f 1e fa          	endbr64 
    2064:	68 03 00 00 00       	push   0x3
    2069:	f2 e9 b1 ff ff ff    	bnd jmp 2020 <_init+0x20>
    206f:	90                   	nop
    2070:	f3 0f 1e fa          	endbr64 
    2074:	68 04 00 00 00       	push   0x4
    2079:	f2 e9 a1 ff ff ff    	bnd jmp 2020 <_init+0x20>
    207f:	90                   	nop
    2080:	f3 0f 1e fa          	endbr64 
    2084:	68 05 00 00 00       	push   0x5
    2089:	f2 e9 91 ff ff ff    	bnd jmp 2020 <_init+0x20>
    208f:	90                   	nop
    2090:	f3 0f 1e fa          	endbr64 
    2094:	68 06 00 00 00       	push   0x6
    2099:	f2 e9 81 ff ff ff    	bnd jmp 2020 <_init+0x20>
    209f:	90                   	nop
    20a0:	f3 0f 1e fa          	endbr64 
    20a4:	68 07 00 00 00       	push   0x7
    20a9:	f2 e9 71 ff ff ff    	bnd jmp 2020 <_init+0x20>
    20af:	90                   	nop
    20b0:	f3 0f 1e fa          	endbr64 
    20b4:	68 08 00 00 00       	push   0x8
    20b9:	f2 e9 61 ff ff ff    	bnd jmp 2020 <_init+0x20>
    20bf:	90                   	nop
    20c0:	f3 0f 1e fa          	endbr64 
    20c4:	68 09 00 00 00       	push   0x9
    20c9:	f2 e9 51 ff ff ff    	bnd jmp 2020 <_init+0x20>
    20cf:	90                   	nop
    20d0:	f3 0f 1e fa          	endbr64 
    20d4:	68 0a 00 00 00       	push   0xa
    20d9:	f2 e9 41 ff ff ff    	bnd jmp 2020 <_init+0x20>
    20df:	90                   	nop
    20e0:	f3 0f 1e fa          	endbr64 
    20e4:	68 0b 00 00 00       	push   0xb
    20e9:	f2 e9 31 ff ff ff    	bnd jmp 2020 <_init+0x20>
    20ef:	90                   	nop
    20f0:	f3 0f 1e fa          	endbr64 
    20f4:	68 0c 00 00 00       	push   0xc
    20f9:	f2 e9 21 ff ff ff    	bnd jmp 2020 <_init+0x20>
    20ff:	90                   	nop
    2100:	f3 0f 1e fa          	endbr64 
    2104:	68 0d 00 00 00       	push   0xd
    2109:	f2 e9 11 ff ff ff    	bnd jmp 2020 <_init+0x20>
    210f:	90                   	nop
    2110:	f3 0f 1e fa          	endbr64 
    2114:	68 0e 00 00 00       	push   0xe
    2119:	f2 e9 01 ff ff ff    	bnd jmp 2020 <_init+0x20>
    211f:	90                   	nop
    2120:	f3 0f 1e fa          	endbr64 
    2124:	68 0f 00 00 00       	push   0xf
    2129:	f2 e9 f1 fe ff ff    	bnd jmp 2020 <_init+0x20>
    212f:	90                   	nop
    2130:	f3 0f 1e fa          	endbr64 
    2134:	68 10 00 00 00       	push   0x10
    2139:	f2 e9 e1 fe ff ff    	bnd jmp 2020 <_init+0x20>
    213f:	90                   	nop
    2140:	f3 0f 1e fa          	endbr64 
    2144:	68 11 00 00 00       	push   0x11
    2149:	f2 e9 d1 fe ff ff    	bnd jmp 2020 <_init+0x20>
    214f:	90                   	nop
    2150:	f3 0f 1e fa          	endbr64 
    2154:	68 12 00 00 00       	push   0x12
    2159:	f2 e9 c1 fe ff ff    	bnd jmp 2020 <_init+0x20>
    215f:	90                   	nop
    2160:	f3 0f 1e fa          	endbr64 
    2164:	68 13 00 00 00       	push   0x13
    2169:	f2 e9 b1 fe ff ff    	bnd jmp 2020 <_init+0x20>
    216f:	90                   	nop
    2170:	f3 0f 1e fa          	endbr64 
    2174:	68 14 00 00 00       	push   0x14
    2179:	f2 e9 a1 fe ff ff    	bnd jmp 2020 <_init+0x20>
    217f:	90                   	nop
    2180:	f3 0f 1e fa          	endbr64 
    2184:	68 15 00 00 00       	push   0x15
    2189:	f2 e9 91 fe ff ff    	bnd jmp 2020 <_init+0x20>
    218f:	90                   	nop
    2190:	f3 0f 1e fa          	endbr64 
    2194:	68 16 00 00 00       	push   0x16
    2199:	f2 e9 81 fe ff ff    	bnd jmp 2020 <_init+0x20>
    219f:	90                   	nop
    21a0:	f3 0f 1e fa          	endbr64 
    21a4:	68 17 00 00 00       	push   0x17
    21a9:	f2 e9 71 fe ff ff    	bnd jmp 2020 <_init+0x20>
    21af:	90                   	nop
    21b0:	f3 0f 1e fa          	endbr64 
    21b4:	68 18 00 00 00       	push   0x18
    21b9:	f2 e9 61 fe ff ff    	bnd jmp 2020 <_init+0x20>
    21bf:	90                   	nop
    21c0:	f3 0f 1e fa          	endbr64 
    21c4:	68 19 00 00 00       	push   0x19
    21c9:	f2 e9 51 fe ff ff    	bnd jmp 2020 <_init+0x20>
    21cf:	90                   	nop
    21d0:	f3 0f 1e fa          	endbr64 
    21d4:	68 1a 00 00 00       	push   0x1a
    21d9:	f2 e9 41 fe ff ff    	bnd jmp 2020 <_init+0x20>
    21df:	90                   	nop
    21e0:	f3 0f 1e fa          	endbr64 
    21e4:	68 1b 00 00 00       	push   0x1b
    21e9:	f2 e9 31 fe ff ff    	bnd jmp 2020 <_init+0x20>
    21ef:	90                   	nop
    21f0:	f3 0f 1e fa          	endbr64 
    21f4:	68 1c 00 00 00       	push   0x1c
    21f9:	f2 e9 21 fe ff ff    	bnd jmp 2020 <_init+0x20>
    21ff:	90                   	nop
    2200:	f3 0f 1e fa          	endbr64 
    2204:	68 1d 00 00 00       	push   0x1d
    2209:	f2 e9 11 fe ff ff    	bnd jmp 2020 <_init+0x20>
    220f:	90                   	nop
    2210:	f3 0f 1e fa          	endbr64 
    2214:	68 1e 00 00 00       	push   0x1e
    2219:	f2 e9 01 fe ff ff    	bnd jmp 2020 <_init+0x20>
    221f:	90                   	nop
    2220:	f3 0f 1e fa          	endbr64 
    2224:	68 1f 00 00 00       	push   0x1f
    2229:	f2 e9 f1 fd ff ff    	bnd jmp 2020 <_init+0x20>
    222f:	90                   	nop
    2230:	f3 0f 1e fa          	endbr64 
    2234:	68 20 00 00 00       	push   0x20
    2239:	f2 e9 e1 fd ff ff    	bnd jmp 2020 <_init+0x20>
    223f:	90                   	nop
    2240:	f3 0f 1e fa          	endbr64 
    2244:	68 21 00 00 00       	push   0x21
    2249:	f2 e9 d1 fd ff ff    	bnd jmp 2020 <_init+0x20>
    224f:	90                   	nop
    2250:	f3 0f 1e fa          	endbr64 
    2254:	68 22 00 00 00       	push   0x22
    2259:	f2 e9 c1 fd ff ff    	bnd jmp 2020 <_init+0x20>
    225f:	90                   	nop
    2260:	f3 0f 1e fa          	endbr64 
    2264:	68 23 00 00 00       	push   0x23
    2269:	f2 e9 b1 fd ff ff    	bnd jmp 2020 <_init+0x20>
    226f:	90                   	nop
    2270:	f3 0f 1e fa          	endbr64 
    2274:	68 24 00 00 00       	push   0x24
    2279:	f2 e9 a1 fd ff ff    	bnd jmp 2020 <_init+0x20>
    227f:	90                   	nop
    2280:	f3 0f 1e fa          	endbr64 
    2284:	68 25 00 00 00       	push   0x25
    2289:	f2 e9 91 fd ff ff    	bnd jmp 2020 <_init+0x20>
    228f:	90                   	nop
    2290:	f3 0f 1e fa          	endbr64 
    2294:	68 26 00 00 00       	push   0x26
    2299:	f2 e9 81 fd ff ff    	bnd jmp 2020 <_init+0x20>
    229f:	90                   	nop
    22a0:	f3 0f 1e fa          	endbr64 
    22a4:	68 27 00 00 00       	push   0x27
    22a9:	f2 e9 71 fd ff ff    	bnd jmp 2020 <_init+0x20>
    22af:	90                   	nop
    22b0:	f3 0f 1e fa          	endbr64 
    22b4:	68 28 00 00 00       	push   0x28
    22b9:	f2 e9 61 fd ff ff    	bnd jmp 2020 <_init+0x20>
    22bf:	90                   	nop
    22c0:	f3 0f 1e fa          	endbr64 
    22c4:	68 29 00 00 00       	push   0x29
    22c9:	f2 e9 51 fd ff ff    	bnd jmp 2020 <_init+0x20>
    22cf:	90                   	nop
    22d0:	f3 0f 1e fa          	endbr64 
    22d4:	68 2a 00 00 00       	push   0x2a
    22d9:	f2 e9 41 fd ff ff    	bnd jmp 2020 <_init+0x20>
    22df:	90                   	nop
    22e0:	f3 0f 1e fa          	endbr64 
    22e4:	68 2b 00 00 00       	push   0x2b
    22e9:	f2 e9 31 fd ff ff    	bnd jmp 2020 <_init+0x20>
    22ef:	90                   	nop
    22f0:	f3 0f 1e fa          	endbr64 
    22f4:	68 2c 00 00 00       	push   0x2c
    22f9:	f2 e9 21 fd ff ff    	bnd jmp 2020 <_init+0x20>
    22ff:	90                   	nop
    2300:	f3 0f 1e fa          	endbr64 
    2304:	68 2d 00 00 00       	push   0x2d
    2309:	f2 e9 11 fd ff ff    	bnd jmp 2020 <_init+0x20>
    230f:	90                   	nop
    2310:	f3 0f 1e fa          	endbr64 
    2314:	68 2e 00 00 00       	push   0x2e
    2319:	f2 e9 01 fd ff ff    	bnd jmp 2020 <_init+0x20>
    231f:	90                   	nop
    2320:	f3 0f 1e fa          	endbr64 
    2324:	68 2f 00 00 00       	push   0x2f
    2329:	f2 e9 f1 fc ff ff    	bnd jmp 2020 <_init+0x20>
    232f:	90                   	nop
    2330:	f3 0f 1e fa          	endbr64 
    2334:	68 30 00 00 00       	push   0x30
    2339:	f2 e9 e1 fc ff ff    	bnd jmp 2020 <_init+0x20>
    233f:	90                   	nop
    2340:	f3 0f 1e fa          	endbr64 
    2344:	68 31 00 00 00       	push   0x31
    2349:	f2 e9 d1 fc ff ff    	bnd jmp 2020 <_init+0x20>
    234f:	90                   	nop
    2350:	f3 0f 1e fa          	endbr64 
    2354:	68 32 00 00 00       	push   0x32
    2359:	f2 e9 c1 fc ff ff    	bnd jmp 2020 <_init+0x20>
    235f:	90                   	nop
    2360:	f3 0f 1e fa          	endbr64 
    2364:	68 33 00 00 00       	push   0x33
    2369:	f2 e9 b1 fc ff ff    	bnd jmp 2020 <_init+0x20>
    236f:	90                   	nop
    2370:	f3 0f 1e fa          	endbr64 
    2374:	68 34 00 00 00       	push   0x34
    2379:	f2 e9 a1 fc ff ff    	bnd jmp 2020 <_init+0x20>
    237f:	90                   	nop
    2380:	f3 0f 1e fa          	endbr64 
    2384:	68 35 00 00 00       	push   0x35
    2389:	f2 e9 91 fc ff ff    	bnd jmp 2020 <_init+0x20>
    238f:	90                   	nop
    2390:	f3 0f 1e fa          	endbr64 
    2394:	68 36 00 00 00       	push   0x36
    2399:	f2 e9 81 fc ff ff    	bnd jmp 2020 <_init+0x20>
    239f:	90                   	nop
    23a0:	f3 0f 1e fa          	endbr64 
    23a4:	68 37 00 00 00       	push   0x37
    23a9:	f2 e9 71 fc ff ff    	bnd jmp 2020 <_init+0x20>
    23af:	90                   	nop
    23b0:	f3 0f 1e fa          	endbr64 
    23b4:	68 38 00 00 00       	push   0x38
    23b9:	f2 e9 61 fc ff ff    	bnd jmp 2020 <_init+0x20>
    23bf:	90                   	nop
    23c0:	f3 0f 1e fa          	endbr64 
    23c4:	68 39 00 00 00       	push   0x39
    23c9:	f2 e9 51 fc ff ff    	bnd jmp 2020 <_init+0x20>
    23cf:	90                   	nop
    23d0:	f3 0f 1e fa          	endbr64 
    23d4:	68 3a 00 00 00       	push   0x3a
    23d9:	f2 e9 41 fc ff ff    	bnd jmp 2020 <_init+0x20>
    23df:	90                   	nop
    23e0:	f3 0f 1e fa          	endbr64 
    23e4:	68 3b 00 00 00       	push   0x3b
    23e9:	f2 e9 31 fc ff ff    	bnd jmp 2020 <_init+0x20>
    23ef:	90                   	nop
    23f0:	f3 0f 1e fa          	endbr64 
    23f4:	68 3c 00 00 00       	push   0x3c
    23f9:	f2 e9 21 fc ff ff    	bnd jmp 2020 <_init+0x20>
    23ff:	90                   	nop
    2400:	f3 0f 1e fa          	endbr64 
    2404:	68 3d 00 00 00       	push   0x3d
    2409:	f2 e9 11 fc ff ff    	bnd jmp 2020 <_init+0x20>
    240f:	90                   	nop
    2410:	f3 0f 1e fa          	endbr64 
    2414:	68 3e 00 00 00       	push   0x3e
    2419:	f2 e9 01 fc ff ff    	bnd jmp 2020 <_init+0x20>
    241f:	90                   	nop
    2420:	f3 0f 1e fa          	endbr64 
    2424:	68 3f 00 00 00       	push   0x3f
    2429:	f2 e9 f1 fb ff ff    	bnd jmp 2020 <_init+0x20>
    242f:	90                   	nop
    2430:	f3 0f 1e fa          	endbr64 
    2434:	68 40 00 00 00       	push   0x40
    2439:	f2 e9 e1 fb ff ff    	bnd jmp 2020 <_init+0x20>
    243f:	90                   	nop
    2440:	f3 0f 1e fa          	endbr64 
    2444:	68 41 00 00 00       	push   0x41
    2449:	f2 e9 d1 fb ff ff    	bnd jmp 2020 <_init+0x20>
    244f:	90                   	nop

Disassembly of section .plt.got:

0000000000002450 <__cxa_finalize@plt>:
    2450:	f3 0f 1e fa          	endbr64 
    2454:	f2 ff 25 95 eb 00 00 	bnd jmp QWORD PTR [rip+0xeb95]        # 10ff0 <__cxa_finalize@GLIBC_2.2.5>
    245b:	0f 1f 44 00 00       	nop    DWORD PTR [rax+rax*1+0x0]

Disassembly of section .plt.sec:

0000000000002460 <sqlite3_close@plt>:
    2460:	f3 0f 1e fa          	endbr64 
    2464:	f2 ff 25 5d e9 00 00 	bnd jmp QWORD PTR [rip+0xe95d]        # 10dc8 <sqlite3_close>
    246b:	0f 1f 44 00 00       	nop    DWORD PTR [rax+rax*1+0x0]

0000000000002470 <pthread_join@plt>:
    2470:	f3 0f 1e fa          	endbr64 
    2474:	f2 ff 25 55 e9 00 00 	bnd jmp QWORD PTR [rip+0xe955]        # 10dd0 <pthread_join@GLIBC_2.34>
    247b:	0f 1f 44 00 00       	nop    DWORD PTR [rax+rax*1+0x0]

0000000000002480 <printf@plt>:
    2480:	f3 0f 1e fa          	endbr64 
    2484:	f2 ff 25 4d e9 00 00 	bnd jmp QWORD PTR [rip+0xe94d]        # 10dd8 <printf@GLIBC_2.2.5>
    248b:	0f 1f 44 00 00       	nop    DWORD PTR [rax+rax*1+0x0]

0000000000002490 <memset@plt>:
    2490:	f3 0f 1e fa          	endbr64 
    2494:	f2 ff 25 45 e9 00 00 	bnd jmp QWORD PTR [rip+0xe945]        # 10de0 <memset@GLIBC_2.2.5>
    249b:	0f 1f 44 00 00       	nop    DWORD PTR [rax+rax*1+0x0]

00000000000024a0 <snprintf@plt>:
    24a0:	f3 0f 1e fa          	endbr64 
    24a4:	f2 ff 25 3d e9 00 00 	bnd jmp QWORD PTR [rip+0xe93d]        # 10de8 <snprintf@GLIBC_2.2.5>
    24ab:	0f 1f 44 00 00       	nop    DWORD PTR [rax+rax*1+0x0]

00000000000024b0 <backtrace@plt>:
    24b0:	f3 0f 1e fa          	endbr64 
    24b4:	f2 ff 25 35 e9 00 00 	bnd jmp QWORD PTR [rip+0xe935]        # 10df0 <backtrace@GLIBC_2.2.5>
    24bb:	0f 1f 44 00 00       	nop    DWORD PTR [rax+rax*1+0x0]

00000000000024c0 <close@plt>:
    24c0:	f3 0f 1e fa          	endbr64 
    24c4:	f2 ff 25 2d e9 00 00 	bnd jmp QWORD PTR [rip+0xe92d]        # 10df8 <close@GLIBC_2.2.5>
    24cb:	0f 1f 44 00 00       	nop    DWORD PTR [rax+rax*1+0x0]

00000000000024d0 <strncat@plt>:
    24d0:	f3 0f 1e fa          	endbr64 
    24d4:	f2 ff 25 25 e9 00 00 	bnd jmp QWORD PTR [rip+0xe925]        # 10e00 <strncat@GLIBC_2.2.5>
    24db:	0f 1f 44 00 00       	nop    DWORD PTR [rax+rax*1+0x0]

00000000000024e0 <puts@plt>:
    24e0:	f3 0f 1e fa          	endbr64 
    24e4:	f2 ff 25 1d e9 00 00 	bnd jmp QWORD PTR [rip+0xe91d]        # 10e08 <puts@GLIBC_2.2.5>
    24eb:	0f 1f 44 00 00       	nop    DWORD PTR [rax+rax*1+0x0]

00000000000024f0 <htons@plt>:
    24f0:	f3 0f 1e fa          	endbr64 
    24f4:	f2 ff 25 15 e9 00 00 	bnd jmp QWORD PTR [rip+0xe915]        # 10e10 <htons@GLIBC_2.2.5>
    24fb:	0f 1f 44 00 00       	nop    DWORD PTR [rax+rax*1+0x0]

0000000000002500 <exit@plt>:
    2500:	f3 0f 1e fa          	endbr64 
    2504:	f2 ff 25 0d e9 00 00 	bnd jmp QWORD PTR [rip+0xe90d]        # 10e18 <exit@GLIBC_2.2.5>
    250b:	0f 1f 44 00 00       	nop    DWORD PTR [rax+rax*1+0x0]

0000000000002510 <putchar@plt>:
    2510:	f3 0f 1e fa          	endbr64 
    2514:	f2 ff 25 05 e9 00 00 	bnd jmp QWORD PTR [rip+0xe905]        # 10e20 <putchar@GLIBC_2.2.5>
    251b:	0f 1f 44 00 00       	nop    DWORD PTR [rax+rax*1+0x0]

0000000000002520 <sqlite3_exec@plt>:
    2520:	f3 0f 1e fa          	endbr64 
    2524:	f2 ff 25 fd e8 00 00 	bnd jmp QWORD PTR [rip+0xe8fd]        # 10e28 <sqlite3_exec>
    252b:	0f 1f 44 00 00       	nop    DWORD PTR [rax+rax*1+0x0]

0000000000002530 <getopt@plt>:
    2530:	f3 0f 1e fa          	endbr64 
    2534:	f2 ff 25 f5 e8 00 00 	bnd jmp QWORD PTR [rip+0xe8f5]        # 10e30 <getopt@GLIBC_2.2.5>
    253b:	0f 1f 44 00 00       	nop    DWORD PTR [rax+rax*1+0x0]

0000000000002540 <read@plt>:
    2540:	f3 0f 1e fa          	endbr64 
    2544:	f2 ff 25 ed e8 00 00 	bnd jmp QWORD PTR [rip+0xe8ed]        # 10e38 <read@GLIBC_2.2.5>
    254b:	0f 1f 44 00 00       	nop    DWORD PTR [rax+rax*1+0x0]

0000000000002550 <strncmp@plt>:
    2550:	f3 0f 1e fa          	endbr64 
    2554:	f2 ff 25 e5 e8 00 00 	bnd jmp QWORD PTR [rip+0xe8e5]        # 10e40 <strncmp@GLIBC_2.2.5>
    255b:	0f 1f 44 00 00       	nop    DWORD PTR [rax+rax*1+0x0]

0000000000002560 <malloc@plt>:
    2560:	f3 0f 1e fa          	endbr64 
    2564:	f2 ff 25 dd e8 00 00 	bnd jmp QWORD PTR [rip+0xe8dd]        # 10e48 <malloc@GLIBC_2.2.5>
    256b:	0f 1f 44 00 00       	nop    DWORD PTR [rax+rax*1+0x0]

0000000000002570 <fopen@plt>:
    2570:	f3 0f 1e fa          	endbr64 
    2574:	f2 ff 25 d5 e8 00 00 	bnd jmp QWORD PTR [rip+0xe8d5]        # 10e50 <fopen@GLIBC_2.2.5>
    257b:	0f 1f 44 00 00       	nop    DWORD PTR [rax+rax*1+0x0]

0000000000002580 <regexec@plt>:
    2580:	f3 0f 1e fa          	endbr64 
    2584:	f2 ff 25 cd e8 00 00 	bnd jmp QWORD PTR [rip+0xe8cd]        # 10e58 <regexec@GLIBC_2.3.4>
    258b:	0f 1f 44 00 00       	nop    DWORD PTR [rax+rax*1+0x0]

0000000000002590 <pcap_open_live@plt>:
    2590:	f3 0f 1e fa          	endbr64 
    2594:	f2 ff 25 c5 e8 00 00 	bnd jmp QWORD PTR [rip+0xe8c5]        # 10e60 <pcap_open_live>
    259b:	0f 1f 44 00 00       	nop    DWORD PTR [rax+rax*1+0x0]

00000000000025a0 <setsockopt@plt>:
    25a0:	f3 0f 1e fa          	endbr64 
    25a4:	f2 ff 25 bd e8 00 00 	bnd jmp QWORD PTR [rip+0xe8bd]        # 10e68 <setsockopt@GLIBC_2.2.5>
    25ab:	0f 1f 44 00 00       	nop    DWORD PTR [rax+rax*1+0x0]

00000000000025b0 <sqlite3_free@plt>:
    25b0:	f3 0f 1e fa          	endbr64 
    25b4:	f2 ff 25 b5 e8 00 00 	bnd jmp QWORD PTR [rip+0xe8b5]        # 10e70 <sqlite3_free>
    25bb:	0f 1f 44 00 00       	nop    DWORD PTR [rax+rax*1+0x0]

00000000000025c0 <lua_settop@plt>:
    25c0:	f3 0f 1e fa          	endbr64 
    25c4:	f2 ff 25 ad e8 00 00 	bnd jmp QWORD PTR [rip+0xe8ad]        # 10e78 <lua_settop@LUA_5.3>
    25cb:	0f 1f 44 00 00       	nop    DWORD PTR [rax+rax*1+0x0]

00000000000025d0 <pthread_create@plt>:
    25d0:	f3 0f 1e fa          	endbr64 
    25d4:	f2 ff 25 a5 e8 00 00 	bnd jmp QWORD PTR [rip+0xe8a5]        # 10e80 <pthread_create@GLIBC_2.34>
    25db:	0f 1f 44 00 00       	nop    DWORD PTR [rax+rax*1+0x0]

00000000000025e0 <backtrace_symbols@plt>:
    25e0:	f3 0f 1e fa          	endbr64 
    25e4:	f2 ff 25 9d e8 00 00 	bnd jmp QWORD PTR [rip+0xe89d]        # 10e88 <backtrace_symbols@GLIBC_2.2.5>
    25eb:	0f 1f 44 00 00       	nop    DWORD PTR [rax+rax*1+0x0]

00000000000025f0 <free@plt>:
    25f0:	f3 0f 1e fa          	endbr64 
    25f4:	f2 ff 25 95 e8 00 00 	bnd jmp QWORD PTR [rip+0xe895]        # 10e90 <free@GLIBC_2.2.5>
    25fb:	0f 1f 44 00 00       	nop    DWORD PTR [rax+rax*1+0x0]

0000000000002600 <strlen@plt>:
    2600:	f3 0f 1e fa          	endbr64 
    2604:	f2 ff 25 8d e8 00 00 	bnd jmp QWORD PTR [rip+0xe88d]        # 10e98 <strlen@GLIBC_2.2.5>
    260b:	0f 1f 44 00 00       	nop    DWORD PTR [rax+rax*1+0x0]

0000000000002610 <listen@plt>:
    2610:	f3 0f 1e fa          	endbr64 
    2614:	f2 ff 25 85 e8 00 00 	bnd jmp QWORD PTR [rip+0xe885]        # 10ea0 <listen@GLIBC_2.2.5>
    261b:	0f 1f 44 00 00       	nop    DWORD PTR [rax+rax*1+0x0]

0000000000002620 <sprintf@plt>:
    2620:	f3 0f 1e fa          	endbr64 
    2624:	f2 ff 25 7d e8 00 00 	bnd jmp QWORD PTR [rip+0xe87d]        # 10ea8 <sprintf@GLIBC_2.2.5>
    262b:	0f 1f 44 00 00       	nop    DWORD PTR [rax+rax*1+0x0]

0000000000002630 <ntohs@plt>:
    2630:	f3 0f 1e fa          	endbr64 
    2634:	f2 ff 25 75 e8 00 00 	bnd jmp QWORD PTR [rip+0xe875]        # 10eb0 <ntohs@GLIBC_2.2.5>
    263b:	0f 1f 44 00 00       	nop    DWORD PTR [rax+rax*1+0x0]

0000000000002640 <ntohl@plt>:
    2640:	f3 0f 1e fa          	endbr64 
    2644:	f2 ff 25 6d e8 00 00 	bnd jmp QWORD PTR [rip+0xe86d]        # 10eb8 <ntohl@GLIBC_2.2.5>
    264b:	0f 1f 44 00 00       	nop    DWORD PTR [rax+rax*1+0x0]

0000000000002650 <sleep@plt>:
    2650:	f3 0f 1e fa          	endbr64 
    2654:	f2 ff 25 65 e8 00 00 	bnd jmp QWORD PTR [rip+0xe865]        # 10ec0 <sleep@GLIBC_2.2.5>
    265b:	0f 1f 44 00 00       	nop    DWORD PTR [rax+rax*1+0x0]

0000000000002660 <lua_pcallk@plt>:
    2660:	f3 0f 1e fa          	endbr64 
    2664:	f2 ff 25 5d e8 00 00 	bnd jmp QWORD PTR [rip+0xe85d]        # 10ec8 <lua_pcallk@LUA_5.3>
    266b:	0f 1f 44 00 00       	nop    DWORD PTR [rax+rax*1+0x0]

0000000000002670 <strstr@plt>:
    2670:	f3 0f 1e fa          	endbr64 
    2674:	f2 ff 25 55 e8 00 00 	bnd jmp QWORD PTR [rip+0xe855]        # 10ed0 <strstr@GLIBC_2.2.5>
    267b:	0f 1f 44 00 00       	nop    DWORD PTR [rax+rax*1+0x0]

0000000000002680 <strcat@plt>:
    2680:	f3 0f 1e fa          	endbr64 
    2684:	f2 ff 25 4d e8 00 00 	bnd jmp QWORD PTR [rip+0xe84d]        # 10ed8 <strcat@GLIBC_2.2.5>
    268b:	0f 1f 44 00 00       	nop    DWORD PTR [rax+rax*1+0x0]

0000000000002690 <fputs@plt>:
    2690:	f3 0f 1e fa          	endbr64 
    2694:	f2 ff 25 45 e8 00 00 	bnd jmp QWORD PTR [rip+0xe845]        # 10ee0 <fputs@GLIBC_2.2.5>
    269b:	0f 1f 44 00 00       	nop    DWORD PTR [rax+rax*1+0x0]

00000000000026a0 <strtol@plt>:
    26a0:	f3 0f 1e fa          	endbr64 
    26a4:	f2 ff 25 3d e8 00 00 	bnd jmp QWORD PTR [rip+0xe83d]        # 10ee8 <strtol@GLIBC_2.2.5>
    26ab:	0f 1f 44 00 00       	nop    DWORD PTR [rax+rax*1+0x0]

00000000000026b0 <luaL_loadfilex@plt>:
    26b0:	f3 0f 1e fa          	endbr64 
    26b4:	f2 ff 25 35 e8 00 00 	bnd jmp QWORD PTR [rip+0xe835]        # 10ef0 <luaL_loadfilex@LUA_5.3>
    26bb:	0f 1f 44 00 00       	nop    DWORD PTR [rax+rax*1+0x0]

00000000000026c0 <atoi@plt>:
    26c0:	f3 0f 1e fa          	endbr64 
    26c4:	f2 ff 25 2d e8 00 00 	bnd jmp QWORD PTR [rip+0xe82d]        # 10ef8 <atoi@GLIBC_2.2.5>
    26cb:	0f 1f 44 00 00       	nop    DWORD PTR [rax+rax*1+0x0]

00000000000026d0 <regcomp@plt>:
    26d0:	f3 0f 1e fa          	endbr64 
    26d4:	f2 ff 25 25 e8 00 00 	bnd jmp QWORD PTR [rip+0xe825]        # 10f00 <regcomp@GLIBC_2.2.5>
    26db:	0f 1f 44 00 00       	nop    DWORD PTR [rax+rax*1+0x0]

00000000000026e0 <signal@plt>:
    26e0:	f3 0f 1e fa          	endbr64 
    26e4:	f2 ff 25 1d e8 00 00 	bnd jmp QWORD PTR [rip+0xe81d]        # 10f08 <signal@GLIBC_2.2.5>
    26eb:	0f 1f 44 00 00       	nop    DWORD PTR [rax+rax*1+0x0]

00000000000026f0 <strchr@plt>:
    26f0:	f3 0f 1e fa          	endbr64 
    26f4:	f2 ff 25 15 e8 00 00 	bnd jmp QWORD PTR [rip+0xe815]        # 10f10 <strchr@GLIBC_2.2.5>
    26fb:	0f 1f 44 00 00       	nop    DWORD PTR [rax+rax*1+0x0]

0000000000002700 <lua_gettop@plt>:
    2700:	f3 0f 1e fa          	endbr64 
    2704:	f2 ff 25 0d e8 00 00 	bnd jmp QWORD PTR [rip+0xe80d]        # 10f18 <lua_gettop@LUA_5.3>
    270b:	0f 1f 44 00 00       	nop    DWORD PTR [rax+rax*1+0x0]

0000000000002710 <luaL_newstate@plt>:
    2710:	f3 0f 1e fa          	endbr64 
    2714:	f2 ff 25 05 e8 00 00 	bnd jmp QWORD PTR [rip+0xe805]        # 10f20 <luaL_newstate@LUA_5.3>
    271b:	0f 1f 44 00 00       	nop    DWORD PTR [rax+rax*1+0x0]

0000000000002720 <socket@plt>:
    2720:	f3 0f 1e fa          	endbr64 
    2724:	f2 ff 25 fd e7 00 00 	bnd jmp QWORD PTR [rip+0xe7fd]        # 10f28 <socket@GLIBC_2.2.5>
    272b:	0f 1f 44 00 00       	nop    DWORD PTR [rax+rax*1+0x0]

0000000000002730 <luaL_openlibs@plt>:
    2730:	f3 0f 1e fa          	endbr64 
    2734:	f2 ff 25 f5 e7 00 00 	bnd jmp QWORD PTR [rip+0xe7f5]        # 10f30 <luaL_openlibs@LUA_5.3>
    273b:	0f 1f 44 00 00       	nop    DWORD PTR [rax+rax*1+0x0]

0000000000002740 <__stack_chk_fail@plt>:
    2740:	f3 0f 1e fa          	endbr64 
    2744:	f2 ff 25 ed e7 00 00 	bnd jmp QWORD PTR [rip+0xe7ed]        # 10f38 <__stack_chk_fail@GLIBC_2.4>
    274b:	0f 1f 44 00 00       	nop    DWORD PTR [rax+rax*1+0x0]

0000000000002750 <strcmp@plt>:
    2750:	f3 0f 1e fa          	endbr64 
    2754:	f2 ff 25 e5 e7 00 00 	bnd jmp QWORD PTR [rip+0xe7e5]        # 10f40 <strcmp@GLIBC_2.2.5>
    275b:	0f 1f 44 00 00       	nop    DWORD PTR [rax+rax*1+0x0]

0000000000002760 <getline@plt>:
    2760:	f3 0f 1e fa          	endbr64 
    2764:	f2 ff 25 dd e7 00 00 	bnd jmp QWORD PTR [rip+0xe7dd]        # 10f48 <getline@GLIBC_2.2.5>
    276b:	0f 1f 44 00 00       	nop    DWORD PTR [rax+rax*1+0x0]

0000000000002770 <strcpy@plt>:
    2770:	f3 0f 1e fa          	endbr64 
    2774:	f2 ff 25 d5 e7 00 00 	bnd jmp QWORD PTR [rip+0xe7d5]        # 10f50 <strcpy@GLIBC_2.2.5>
    277b:	0f 1f 44 00 00       	nop    DWORD PTR [rax+rax*1+0x0]

0000000000002780 <strtok@plt>:
    2780:	f3 0f 1e fa          	endbr64 
    2784:	f2 ff 25 cd e7 00 00 	bnd jmp QWORD PTR [rip+0xe7cd]        # 10f58 <strtok@GLIBC_2.2.5>
    278b:	0f 1f 44 00 00       	nop    DWORD PTR [rax+rax*1+0x0]

0000000000002790 <lua_close@plt>:
    2790:	f3 0f 1e fa          	endbr64 
    2794:	f2 ff 25 c5 e7 00 00 	bnd jmp QWORD PTR [rip+0xe7c5]        # 10f60 <lua_close@LUA_5.3>
    279b:	0f 1f 44 00 00       	nop    DWORD PTR [rax+rax*1+0x0]

00000000000027a0 <sqlite3_errmsg@plt>:
    27a0:	f3 0f 1e fa          	endbr64 
    27a4:	f2 ff 25 bd e7 00 00 	bnd jmp QWORD PTR [rip+0xe7bd]        # 10f68 <sqlite3_errmsg>
    27ab:	0f 1f 44 00 00       	nop    DWORD PTR [rax+rax*1+0x0]

00000000000027b0 <fclose@plt>:
    27b0:	f3 0f 1e fa          	endbr64 
    27b4:	f2 ff 25 b5 e7 00 00 	bnd jmp QWORD PTR [rip+0xe7b5]        # 10f70 <fclose@GLIBC_2.2.5>
    27bb:	0f 1f 44 00 00       	nop    DWORD PTR [rax+rax*1+0x0]

00000000000027c0 <strncpy@plt>:
    27c0:	f3 0f 1e fa          	endbr64 
    27c4:	f2 ff 25 ad e7 00 00 	bnd jmp QWORD PTR [rip+0xe7ad]        # 10f78 <strncpy@GLIBC_2.2.5>
    27cb:	0f 1f 44 00 00       	nop    DWORD PTR [rax+rax*1+0x0]

00000000000027d0 <strcspn@plt>:
    27d0:	f3 0f 1e fa          	endbr64 
    27d4:	f2 ff 25 a5 e7 00 00 	bnd jmp QWORD PTR [rip+0xe7a5]        # 10f80 <strcspn@GLIBC_2.2.5>
    27db:	0f 1f 44 00 00       	nop    DWORD PTR [rax+rax*1+0x0]

00000000000027e0 <bind@plt>:
    27e0:	f3 0f 1e fa          	endbr64 
    27e4:	f2 ff 25 9d e7 00 00 	bnd jmp QWORD PTR [rip+0xe79d]        # 10f88 <bind@GLIBC_2.2.5>
    27eb:	0f 1f 44 00 00       	nop    DWORD PTR [rax+rax*1+0x0]

00000000000027f0 <pcap_loop@plt>:
    27f0:	f3 0f 1e fa          	endbr64 
    27f4:	f2 ff 25 95 e7 00 00 	bnd jmp QWORD PTR [rip+0xe795]        # 10f90 <pcap_loop>
    27fb:	0f 1f 44 00 00       	nop    DWORD PTR [rax+rax*1+0x0]

0000000000002800 <htonl@plt>:
    2800:	f3 0f 1e fa          	endbr64 
    2804:	f2 ff 25 8d e7 00 00 	bnd jmp QWORD PTR [rip+0xe78d]        # 10f98 <htonl@GLIBC_2.2.5>
    280b:	0f 1f 44 00 00       	nop    DWORD PTR [rax+rax*1+0x0]

0000000000002810 <perror@plt>:
    2810:	f3 0f 1e fa          	endbr64 
    2814:	f2 ff 25 85 e7 00 00 	bnd jmp QWORD PTR [rip+0xe785]        # 10fa0 <perror@GLIBC_2.2.5>
    281b:	0f 1f 44 00 00       	nop    DWORD PTR [rax+rax*1+0x0]

0000000000002820 <fprintf@plt>:
    2820:	f3 0f 1e fa          	endbr64 
    2824:	f2 ff 25 7d e7 00 00 	bnd jmp QWORD PTR [rip+0xe77d]        # 10fa8 <fprintf@GLIBC_2.2.5>
    282b:	0f 1f 44 00 00       	nop    DWORD PTR [rax+rax*1+0x0]

0000000000002830 <localtime@plt>:
    2830:	f3 0f 1e fa          	endbr64 
    2834:	f2 ff 25 75 e7 00 00 	bnd jmp QWORD PTR [rip+0xe775]        # 10fb0 <localtime@GLIBC_2.2.5>
    283b:	0f 1f 44 00 00       	nop    DWORD PTR [rax+rax*1+0x0]

0000000000002840 <getdelim@plt>:
    2840:	f3 0f 1e fa          	endbr64 
    2844:	f2 ff 25 6d e7 00 00 	bnd jmp QWORD PTR [rip+0xe76d]        # 10fb8 <getdelim@GLIBC_2.2.5>
    284b:	0f 1f 44 00 00       	nop    DWORD PTR [rax+rax*1+0x0]

0000000000002850 <accept@plt>:
    2850:	f3 0f 1e fa          	endbr64 
    2854:	f2 ff 25 65 e7 00 00 	bnd jmp QWORD PTR [rip+0xe765]        # 10fc0 <accept@GLIBC_2.2.5>
    285b:	0f 1f 44 00 00       	nop    DWORD PTR [rax+rax*1+0x0]

0000000000002860 <sqlite3_open@plt>:
    2860:	f3 0f 1e fa          	endbr64 
    2864:	f2 ff 25 5d e7 00 00 	bnd jmp QWORD PTR [rip+0xe75d]        # 10fc8 <sqlite3_open>
    286b:	0f 1f 44 00 00       	nop    DWORD PTR [rax+rax*1+0x0]

0000000000002870 <time@plt>:
    2870:	f3 0f 1e fa          	endbr64 
    2874:	f2 ff 25 55 e7 00 00 	bnd jmp QWORD PTR [rip+0xe755]        # 10fd0 <time@GLIBC_2.2.5>
    287b:	0f 1f 44 00 00       	nop    DWORD PTR [rax+rax*1+0x0]

Disassembly of section .text:

0000000000002880 <_start>:
    2880:	f3 0f 1e fa          	endbr64 
    2884:	31 ed                	xor    ebp,ebp
    2886:	49 89 d1             	mov    r9,rdx
    2889:	5e                   	pop    rsi
    288a:	48 89 e2             	mov    rdx,rsp
    288d:	48 83 e4 f0          	and    rsp,0xfffffffffffffff0
    2891:	50                   	push   rax
    2892:	54                   	push   rsp
    2893:	45 31 c0             	xor    r8d,r8d
    2896:	31 c9                	xor    ecx,ecx
    2898:	48 8d 3d 9c 3f 00 00 	lea    rdi,[rip+0x3f9c]        # 683b <main>
    289f:	ff 15 53 e7 00 00    	call   QWORD PTR [rip+0xe753]        # 10ff8 <__libc_start_main@GLIBC_2.34>
    28a5:	f4                   	hlt    
    28a6:	66 2e 0f 1f 84 00 00 	cs nop WORD PTR [rax+rax*1+0x0]
    28ad:	00 00 00 

00000000000028b0 <deregister_tm_clones>:
    28b0:	48 8d 3d 91 e7 00 00 	lea    rdi,[rip+0xe791]        # 11048 <__TMC_END__>
    28b7:	48 8d 05 8a e7 00 00 	lea    rax,[rip+0xe78a]        # 11048 <__TMC_END__>
    28be:	48 39 f8             	cmp    rax,rdi
    28c1:	74 15                	je     28d8 <deregister_tm_clones+0x28>
    28c3:	48 8b 05 16 e7 00 00 	mov    rax,QWORD PTR [rip+0xe716]        # 10fe0 <_ITM_deregisterTMCloneTable>
    28ca:	48 85 c0             	test   rax,rax
    28cd:	74 09                	je     28d8 <deregister_tm_clones+0x28>
    28cf:	ff e0                	jmp    rax
    28d1:	0f 1f 80 00 00 00 00 	nop    DWORD PTR [rax+0x0]
    28d8:	c3                   	ret    
    28d9:	0f 1f 80 00 00 00 00 	nop    DWORD PTR [rax+0x0]

00000000000028e0 <register_tm_clones>:
    28e0:	48 8d 3d 61 e7 00 00 	lea    rdi,[rip+0xe761]        # 11048 <__TMC_END__>
    28e7:	48 8d 35 5a e7 00 00 	lea    rsi,[rip+0xe75a]        # 11048 <__TMC_END__>
    28ee:	48 29 fe             	sub    rsi,rdi
    28f1:	48 89 f0             	mov    rax,rsi
    28f4:	48 c1 ee 3f          	shr    rsi,0x3f
    28f8:	48 c1 f8 03          	sar    rax,0x3
    28fc:	48 01 c6             	add    rsi,rax
    28ff:	48 d1 fe             	sar    rsi,1
    2902:	74 14                	je     2918 <register_tm_clones+0x38>
    2904:	48 8b 05 dd e6 00 00 	mov    rax,QWORD PTR [rip+0xe6dd]        # 10fe8 <_ITM_registerTMCloneTable>
    290b:	48 85 c0             	test   rax,rax
    290e:	74 08                	je     2918 <register_tm_clones+0x38>
    2910:	ff e0                	jmp    rax
    2912:	66 0f 1f 44 00 00    	nop    WORD PTR [rax+rax*1+0x0]
    2918:	c3                   	ret    
    2919:	0f 1f 80 00 00 00 00 	nop    DWORD PTR [rax+0x0]

0000000000002920 <__do_global_dtors_aux>:
    2920:	f3 0f 1e fa          	endbr64 
    2924:	80 3d 3d e7 00 00 00 	cmp    BYTE PTR [rip+0xe73d],0x0        # 11068 <completed.0>
    292b:	75 2b                	jne    2958 <__do_global_dtors_aux+0x38>
    292d:	55                   	push   rbp
    292e:	48 83 3d ba e6 00 00 	cmp    QWORD PTR [rip+0xe6ba],0x0        # 10ff0 <__cxa_finalize@GLIBC_2.2.5>
    2935:	00 
    2936:	48 89 e5             	mov    rbp,rsp
    2939:	74 0c                	je     2947 <__do_global_dtors_aux+0x27>
    293b:	48 8b 3d c6 e6 00 00 	mov    rdi,QWORD PTR [rip+0xe6c6]        # 11008 <__dso_handle>
    2942:	e8 09 fb ff ff       	call   2450 <__cxa_finalize@plt>
    2947:	e8 64 ff ff ff       	call   28b0 <deregister_tm_clones>
    294c:	c6 05 15 e7 00 00 01 	mov    BYTE PTR [rip+0xe715],0x1        # 11068 <completed.0>
    2953:	5d                   	pop    rbp
    2954:	c3                   	ret    
    2955:	0f 1f 00             	nop    DWORD PTR [rax]
    2958:	c3                   	ret    
    2959:	0f 1f 80 00 00 00 00 	nop    DWORD PTR [rax+0x0]

0000000000002960 <frame_dummy>:
    2960:	f3 0f 1e fa          	endbr64 
    2964:	e9 77 ff ff ff       	jmp    28e0 <register_tm_clones>

0000000000002969 <add_thread>:
    2969:	f3 0f 1e fa          	endbr64 
    296d:	55                   	push   rbp
    296e:	48 89 e5             	mov    rbp,rsp
    2971:	48 89 7d f8          	mov    QWORD PTR [rbp-0x8],rdi
    2975:	8b 05 25 e9 00 00    	mov    eax,DWORD PTR [rip+0xe925]        # 112a0 <thread_count>
    297b:	8d 50 01             	lea    edx,[rax+0x1]
    297e:	89 15 1c e9 00 00    	mov    DWORD PTR [rip+0xe91c],edx        # 112a0 <thread_count>
    2984:	48 8b 55 f8          	mov    rdx,QWORD PTR [rbp-0x8]
    2988:	48 8b 12             	mov    rdx,QWORD PTR [rdx]
    298b:	48 98                	cdqe   
    298d:	48 8d 0c c5 00 00 00 	lea    rcx,[rax*8+0x0]
    2994:	00 
    2995:	48 8d 05 04 e7 00 00 	lea    rax,[rip+0xe704]        # 110a0 <threads>
    299c:	48 89 14 01          	mov    QWORD PTR [rcx+rax*1],rdx
    29a0:	90                   	nop
    29a1:	5d                   	pop    rbp
    29a2:	c3                   	ret    

00000000000029a3 <pktmgr>:
    29a3:	f3 0f 1e fa          	endbr64 
    29a7:	55                   	push   rbp
    29a8:	48 89 e5             	mov    rbp,rsp
    29ab:	53                   	push   rbx
    29ac:	48 83 ec 38          	sub    rsp,0x38
    29b0:	48 89 7d d8          	mov    QWORD PTR [rbp-0x28],rdi
    29b4:	48 89 75 d0          	mov    QWORD PTR [rbp-0x30],rsi
    29b8:	48 89 55 c8          	mov    QWORD PTR [rbp-0x38],rdx
    29bc:	0f b6 05 a1 75 10 00 	movzx  eax,BYTE PTR [rip+0x1075a1]        # 109f64 <packet_print>
    29c3:	84 c0                	test   al,al
    29c5:	74 0c                	je     29d3 <pktmgr+0x30>
    29c7:	48 8d 3d 82 96 00 00 	lea    rdi,[rip+0x9682]        # c050 <_IO_stdin_used+0x50>
    29ce:	e8 0d fb ff ff       	call   24e0 <puts@plt>
    29d3:	8b 05 cb e8 00 00    	mov    eax,DWORD PTR [rip+0xe8cb]        # 112a4 <total_pkt_captured>
    29d9:	83 c0 01             	add    eax,0x1
    29dc:	89 05 c2 e8 00 00    	mov    DWORD PTR [rip+0xe8c2],eax        # 112a4 <total_pkt_captured>
    29e2:	8b 05 d8 e8 00 00    	mov    eax,DWORD PTR [rip+0xe8d8]        # 112c0 <pkt_counter>
    29e8:	83 c0 01             	add    eax,0x1
    29eb:	89 05 cf e8 00 00    	mov    DWORD PTR [rip+0xe8cf],eax        # 112c0 <pkt_counter>
    29f1:	8b 15 c9 e8 00 00    	mov    edx,DWORD PTR [rip+0xe8c9]        # 112c0 <pkt_counter>
    29f7:	8b 05 63 75 10 00    	mov    eax,DWORD PTR [rip+0x107563]        # 109f60 <clean_delay_pkts>
    29fd:	39 c2                	cmp    edx,eax
    29ff:	72 0a                	jb     2a0b <pktmgr+0x68>
    2a01:	c7 05 b5 e8 00 00 00 	mov    DWORD PTR [rip+0xe8b5],0x0        # 112c0 <pkt_counter>
    2a08:	00 00 00 
    2a0b:	48 8b 45 c8          	mov    rax,QWORD PTR [rbp-0x38]
    2a0f:	48 89 45 e8          	mov    QWORD PTR [rbp-0x18],rax
    2a13:	48 8b 45 e8          	mov    rax,QWORD PTR [rbp-0x18]
    2a17:	0f b7 40 0c          	movzx  eax,WORD PTR [rax+0xc]
    2a1b:	0f b7 c0             	movzx  eax,ax
    2a1e:	3d 86 dd 00 00       	cmp    eax,0xdd86
    2a23:	74 46                	je     2a6b <pktmgr+0xc8>
    2a25:	3d 86 dd 00 00       	cmp    eax,0xdd86
    2a2a:	7f 77                	jg     2aa3 <pktmgr+0x100>
    2a2c:	3d 80 35 00 00       	cmp    eax,0x3580
    2a31:	74 23                	je     2a56 <pktmgr+0xb3>
    2a33:	3d 80 35 00 00       	cmp    eax,0x3580
    2a38:	7f 69                	jg     2aa3 <pktmgr+0x100>
    2a3a:	3d 08 06 00 00       	cmp    eax,0x608
    2a3f:	74 15                	je     2a56 <pktmgr+0xb3>
    2a41:	3d 08 06 00 00       	cmp    eax,0x608
    2a46:	7f 5b                	jg     2aa3 <pktmgr+0x100>
    2a48:	83 f8 08             	cmp    eax,0x8
    2a4b:	74 33                	je     2a80 <pktmgr+0xdd>
    2a4d:	3d 90 00 00 00       	cmp    eax,0x90
    2a52:	74 41                	je     2a95 <pktmgr+0xf2>
    2a54:	eb 4d                	jmp    2aa3 <pktmgr+0x100>
    2a56:	48 8b 55 d0          	mov    rdx,QWORD PTR [rbp-0x30]
    2a5a:	48 8b 45 c8          	mov    rax,QWORD PTR [rbp-0x38]
    2a5e:	48 89 d6             	mov    rsi,rdx
    2a61:	48 89 c7             	mov    rdi,rax
    2a64:	e8 86 00 00 00       	call   2aef <arpdecode>
    2a69:	eb 7d                	jmp    2ae8 <pktmgr+0x145>
    2a6b:	48 8b 55 d0          	mov    rdx,QWORD PTR [rbp-0x30]
    2a6f:	48 8b 45 c8          	mov    rax,QWORD PTR [rbp-0x38]
    2a73:	48 89 d6             	mov    rsi,rdx
    2a76:	48 89 c7             	mov    rdi,rax
    2a79:	e8 1f 84 00 00       	call   ae9d <ip6decode>
    2a7e:	eb 68                	jmp    2ae8 <pktmgr+0x145>
    2a80:	48 8b 55 d0          	mov    rdx,QWORD PTR [rbp-0x30]
    2a84:	48 8b 45 c8          	mov    rax,QWORD PTR [rbp-0x38]
    2a88:	48 89 d6             	mov    rsi,rdx
    2a8b:	48 89 c7             	mov    rdi,rax
    2a8e:	e8 56 0b 00 00       	call   35e9 <ipv4pktmgr>
    2a93:	eb 53                	jmp    2ae8 <pktmgr+0x145>
    2a95:	48 8b 45 c8          	mov    rax,QWORD PTR [rbp-0x38]
    2a99:	48 89 c7             	mov    rdi,rax
    2a9c:	e8 42 03 00 00       	call   2de3 <loopback_ctp_decode>
    2aa1:	eb 45                	jmp    2ae8 <pktmgr+0x145>
    2aa3:	48 8b 45 e8          	mov    rax,QWORD PTR [rbp-0x18]
    2aa7:	48 89 c7             	mov    rdi,rax
    2aaa:	e8 f5 04 00 00       	call   2fa4 <uc_mac_ntoa>
    2aaf:	48 89 c3             	mov    rbx,rax
    2ab2:	48 8b 45 e8          	mov    rax,QWORD PTR [rbp-0x18]
    2ab6:	48 83 c0 06          	add    rax,0x6
    2aba:	48 89 c7             	mov    rdi,rax
    2abd:	e8 e2 04 00 00       	call   2fa4 <uc_mac_ntoa>
    2ac2:	41 b9 ff ff ff ff    	mov    r9d,0xffffffff
    2ac8:	41 b8 ff ff ff ff    	mov    r8d,0xffffffff
    2ace:	48 89 d9             	mov    rcx,rbx
    2ad1:	48 89 c2             	mov    rdx,rax
    2ad4:	48 8d 35 bd 95 00 00 	lea    rsi,[rip+0x95bd]        # c098 <_IO_stdin_used+0x98>
    2adb:	48 8d 3d e8 95 00 00 	lea    rdi,[rip+0x95e8]        # c0ca <_IO_stdin_used+0xca>
    2ae2:	e8 66 64 00 00       	call   8f4d <lfprintf>
    2ae7:	90                   	nop
    2ae8:	90                   	nop
    2ae9:	48 8b 5d f8          	mov    rbx,QWORD PTR [rbp-0x8]
    2aed:	c9                   	leave  
    2aee:	c3                   	ret    

0000000000002aef <arpdecode>:
    2aef:	f3 0f 1e fa          	endbr64 
    2af3:	55                   	push   rbp
    2af4:	48 89 e5             	mov    rbp,rsp
    2af7:	48 81 ec 50 03 00 00 	sub    rsp,0x350
    2afe:	48 89 bd b8 fc ff ff 	mov    QWORD PTR [rbp-0x348],rdi
    2b05:	48 89 b5 b0 fc ff ff 	mov    QWORD PTR [rbp-0x350],rsi
    2b0c:	64 48 8b 04 25 28 00 	mov    rax,QWORD PTR fs:0x28
    2b13:	00 00 
    2b15:	48 89 45 f8          	mov    QWORD PTR [rbp-0x8],rax
    2b19:	31 c0                	xor    eax,eax
    2b1b:	0f b6 05 42 74 10 00 	movzx  eax,BYTE PTR [rip+0x107442]        # 109f64 <packet_print>
    2b22:	84 c0                	test   al,al
    2b24:	74 18                	je     2b3e <arpdecode+0x4f>
    2b26:	48 8d 35 bb 95 00 00 	lea    rsi,[rip+0x95bb]        # c0e8 <_IO_stdin_used+0xe8>
    2b2d:	48 8d 3d bc 95 00 00 	lea    rdi,[rip+0x95bc]        # c0f0 <_IO_stdin_used+0xf0>
    2b34:	b8 00 00 00 00       	mov    eax,0x0
    2b39:	e8 42 f9 ff ff       	call   2480 <printf@plt>
    2b3e:	48 8b 85 b8 fc ff ff 	mov    rax,QWORD PTR [rbp-0x348]
    2b45:	48 83 c0 0e          	add    rax,0xe
    2b49:	48 89 85 c8 fc ff ff 	mov    QWORD PTR [rbp-0x338],rax
    2b50:	48 8b 85 c8 fc ff ff 	mov    rax,QWORD PTR [rbp-0x338]
    2b57:	0f b7 40 06          	movzx  eax,WORD PTR [rax+0x6]
    2b5b:	0f b7 c0             	movzx  eax,ax
    2b5e:	3d 00 18 00 00       	cmp    eax,0x1800
    2b63:	74 35                	je     2b9a <arpdecode+0xab>
    2b65:	3d 00 18 00 00       	cmp    eax,0x1800
    2b6a:	0f 8f 1d 02 00 00    	jg     2d8d <arpdecode+0x29e>
    2b70:	3d 00 02 00 00       	cmp    eax,0x200
    2b75:	0f 84 eb 00 00 00    	je     2c66 <arpdecode+0x177>
    2b7b:	3d 00 02 00 00       	cmp    eax,0x200
    2b80:	0f 8f 07 02 00 00    	jg     2d8d <arpdecode+0x29e>
    2b86:	83 f8 02             	cmp    eax,0x2
    2b89:	0f 84 d7 00 00 00    	je     2c66 <arpdecode+0x177>
    2b8f:	3d 00 01 00 00       	cmp    eax,0x100
    2b94:	0f 85 f3 01 00 00    	jne    2d8d <arpdecode+0x29e>
    2b9a:	48 8b 85 c8 fc ff ff 	mov    rax,QWORD PTR [rbp-0x338]
    2ba1:	48 83 c0 18          	add    rax,0x18
    2ba5:	48 89 c7             	mov    rdi,rax
    2ba8:	e8 9d 04 00 00       	call   304a <u8_ipv4_ntoa>
    2bad:	48 89 c1             	mov    rcx,rax
    2bb0:	48 8d 45 90          	lea    rax,[rbp-0x70]
    2bb4:	ba 20 00 00 00       	mov    edx,0x20
    2bb9:	48 89 ce             	mov    rsi,rcx
    2bbc:	48 89 c7             	mov    rdi,rax
    2bbf:	e8 fc fb ff ff       	call   27c0 <strncpy@plt>
    2bc4:	48 8b 85 c8 fc ff ff 	mov    rax,QWORD PTR [rbp-0x338]
    2bcb:	48 83 c0 0e          	add    rax,0xe
    2bcf:	48 89 c7             	mov    rdi,rax
    2bd2:	e8 73 04 00 00       	call   304a <u8_ipv4_ntoa>
    2bd7:	48 89 c1             	mov    rcx,rax
    2bda:	48 8d 45 b0          	lea    rax,[rbp-0x50]
    2bde:	ba 20 00 00 00       	mov    edx,0x20
    2be3:	48 89 ce             	mov    rsi,rcx
    2be6:	48 89 c7             	mov    rdi,rax
    2be9:	e8 d2 fb ff ff       	call   27c0 <strncpy@plt>
    2bee:	48 8d 45 b0          	lea    rax,[rbp-0x50]
    2bf2:	ba 05 00 00 00       	mov    edx,0x5
    2bf7:	48 8d 35 f5 94 00 00 	lea    rsi,[rip+0x94f5]        # c0f3 <_IO_stdin_used+0xf3>
    2bfe:	48 89 c7             	mov    rdi,rax
    2c01:	e8 4a f9 ff ff       	call   2550 <strncmp@plt>
    2c06:	85 c0                	test   eax,eax
    2c08:	75 2c                	jne    2c36 <arpdecode+0x147>
    2c0a:	0f b6 05 53 73 10 00 	movzx  eax,BYTE PTR [rip+0x107353]        # 109f64 <packet_print>
    2c11:	84 c0                	test   al,al
    2c13:	0f 84 97 01 00 00    	je     2db0 <arpdecode+0x2c1>
    2c19:	48 8d 45 90          	lea    rax,[rbp-0x70]
    2c1d:	48 89 c6             	mov    rsi,rax
    2c20:	48 8d 3d d9 94 00 00 	lea    rdi,[rip+0x94d9]        # c100 <_IO_stdin_used+0x100>
    2c27:	b8 00 00 00 00       	mov    eax,0x0
    2c2c:	e8 4f f8 ff ff       	call   2480 <printf@plt>
    2c31:	e9 7a 01 00 00       	jmp    2db0 <arpdecode+0x2c1>
    2c36:	0f b6 05 27 73 10 00 	movzx  eax,BYTE PTR [rip+0x107327]        # 109f64 <packet_print>
    2c3d:	84 c0                	test   al,al
    2c3f:	0f 84 6b 01 00 00    	je     2db0 <arpdecode+0x2c1>
    2c45:	48 8d 55 b0          	lea    rdx,[rbp-0x50]
    2c49:	48 8d 45 90          	lea    rax,[rbp-0x70]
    2c4d:	48 89 c6             	mov    rsi,rax
    2c50:	48 8d 3d c9 94 00 00 	lea    rdi,[rip+0x94c9]        # c120 <_IO_stdin_used+0x120>
    2c57:	b8 00 00 00 00       	mov    eax,0x0
    2c5c:	e8 1f f8 ff ff       	call   2480 <printf@plt>
    2c61:	e9 4a 01 00 00       	jmp    2db0 <arpdecode+0x2c1>
    2c66:	48 8b 85 c8 fc ff ff 	mov    rax,QWORD PTR [rbp-0x338]
    2c6d:	48 83 c0 08          	add    rax,0x8
    2c71:	48 89 c7             	mov    rdi,rax
    2c74:	e8 7d 02 00 00       	call   2ef6 <mac_ntoa>
    2c79:	48 89 c1             	mov    rcx,rax
    2c7c:	48 8d 45 b0          	lea    rax,[rbp-0x50]
    2c80:	ba 40 00 00 00       	mov    edx,0x40
    2c85:	48 89 ce             	mov    rsi,rcx
    2c88:	48 89 c7             	mov    rdi,rax
    2c8b:	e8 30 fb ff ff       	call   27c0 <strncpy@plt>
    2c90:	48 8b 85 c8 fc ff ff 	mov    rax,QWORD PTR [rbp-0x338]
    2c97:	48 83 c0 0e          	add    rax,0xe
    2c9b:	48 89 c7             	mov    rdi,rax
    2c9e:	e8 a7 03 00 00       	call   304a <u8_ipv4_ntoa>
    2ca3:	48 89 c1             	mov    rcx,rax
    2ca6:	48 8d 45 90          	lea    rax,[rbp-0x70]
    2caa:	ba 20 00 00 00       	mov    edx,0x20
    2caf:	48 89 ce             	mov    rsi,rcx
    2cb2:	48 89 c7             	mov    rdi,rax
    2cb5:	e8 06 fb ff ff       	call   27c0 <strncpy@plt>
    2cba:	48 8d 55 b0          	lea    rdx,[rbp-0x50]
    2cbe:	48 8d 45 90          	lea    rax,[rbp-0x70]
    2cc2:	48 89 d6             	mov    rsi,rdx
    2cc5:	48 89 c7             	mov    rdi,rax
    2cc8:	e8 95 4f 00 00       	call   7c62 <entry_exists>
    2ccd:	83 f8 ff             	cmp    eax,0xffffffff
    2cd0:	74 15                	je     2ce7 <arpdecode+0x1f8>
    2cd2:	48 8d 55 b0          	lea    rdx,[rbp-0x50]
    2cd6:	48 8d 45 90          	lea    rax,[rbp-0x70]
    2cda:	48 89 d6             	mov    rsi,rdx
    2cdd:	48 89 c7             	mov    rdi,rax
    2ce0:	e8 2a 4e 00 00       	call   7b0f <compare_entries>
    2ce5:	eb 7d                	jmp    2d64 <arpdecode+0x275>
    2ce7:	0f b6 05 33 72 10 00 	movzx  eax,BYTE PTR [rip+0x107233]        # 109f21 <use_sqlite>
    2cee:	84 c0                	test   al,al
    2cf0:	74 5f                	je     2d51 <arpdecode+0x262>
    2cf2:	c7 85 f4 fc ff ff 00 	mov    DWORD PTR [rbp-0x30c],0x0
    2cf9:	00 00 00 
    2cfc:	48 8d 55 90          	lea    rdx,[rbp-0x70]
    2d00:	48 8d 85 d0 fc ff ff 	lea    rax,[rbp-0x330]
    2d07:	48 89 d6             	mov    rsi,rdx
    2d0a:	48 89 c7             	mov    rdi,rax
    2d0d:	e8 5e fa ff ff       	call   2770 <strcpy@plt>
    2d12:	48 8d 45 b0          	lea    rax,[rbp-0x50]
    2d16:	48 8d 95 d0 fc ff ff 	lea    rdx,[rbp-0x330]
    2d1d:	48 83 c2 10          	add    rdx,0x10
    2d21:	48 89 c6             	mov    rsi,rax
    2d24:	48 89 d7             	mov    rdi,rdx
    2d27:	e8 44 fa ff ff       	call   2770 <strcpy@plt>
    2d2c:	48 8d 95 d0 fc ff ff 	lea    rdx,[rbp-0x330]
    2d33:	48 8d 85 c0 fc ff ff 	lea    rax,[rbp-0x340]
    2d3a:	48 89 d1             	mov    rcx,rdx
    2d3d:	48 8d 15 7d 51 00 00 	lea    rdx,[rip+0x517d]        # 7ec1 <update_db>
    2d44:	be 00 00 00 00       	mov    esi,0x0
    2d49:	48 89 c7             	mov    rdi,rax
    2d4c:	e8 7f f8 ff ff       	call   25d0 <pthread_create@plt>
    2d51:	48 8d 55 b0          	lea    rdx,[rbp-0x50]
    2d55:	48 8d 45 90          	lea    rax,[rbp-0x70]
    2d59:	48 89 d6             	mov    rsi,rdx
    2d5c:	48 89 c7             	mov    rdi,rax
    2d5f:	e8 8a 4e 00 00       	call   7bee <add_entry>
    2d64:	0f b6 05 f9 71 10 00 	movzx  eax,BYTE PTR [rip+0x1071f9]        # 109f64 <packet_print>
    2d6b:	84 c0                	test   al,al
    2d6d:	74 44                	je     2db3 <arpdecode+0x2c4>
    2d6f:	48 8d 55 b0          	lea    rdx,[rbp-0x50]
    2d73:	48 8d 45 90          	lea    rax,[rbp-0x70]
    2d77:	48 89 c6             	mov    rsi,rax
    2d7a:	48 8d 3d c7 93 00 00 	lea    rdi,[rip+0x93c7]        # c148 <_IO_stdin_used+0x148>
    2d81:	b8 00 00 00 00       	mov    eax,0x0
    2d86:	e8 f5 f6 ff ff       	call   2480 <printf@plt>
    2d8b:	eb 26                	jmp    2db3 <arpdecode+0x2c4>
    2d8d:	48 8b 85 c8 fc ff ff 	mov    rax,QWORD PTR [rbp-0x338]
    2d94:	0f b7 40 06          	movzx  eax,WORD PTR [rax+0x6]
    2d98:	0f b7 c0             	movzx  eax,ax
    2d9b:	89 c6                	mov    esi,eax
    2d9d:	48 8d 3d c3 93 00 00 	lea    rdi,[rip+0x93c3]        # c167 <_IO_stdin_used+0x167>
    2da4:	b8 00 00 00 00       	mov    eax,0x0
    2da9:	e8 d2 f6 ff ff       	call   2480 <printf@plt>
    2dae:	eb 04                	jmp    2db4 <arpdecode+0x2c5>
    2db0:	90                   	nop
    2db1:	eb 01                	jmp    2db4 <arpdecode+0x2c5>
    2db3:	90                   	nop
    2db4:	48 8d 35 c4 93 00 00 	lea    rsi,[rip+0x93c4]        # c17f <_IO_stdin_used+0x17f>
    2dbb:	48 8d 3d 2e 93 00 00 	lea    rdi,[rip+0x932e]        # c0f0 <_IO_stdin_used+0xf0>
    2dc2:	b8 00 00 00 00       	mov    eax,0x0
    2dc7:	e8 b4 f6 ff ff       	call   2480 <printf@plt>
    2dcc:	90                   	nop
    2dcd:	48 8b 45 f8          	mov    rax,QWORD PTR [rbp-0x8]
    2dd1:	64 48 2b 04 25 28 00 	sub    rax,QWORD PTR fs:0x28
    2dd8:	00 00 
    2dda:	74 05                	je     2de1 <arpdecode+0x2f2>
    2ddc:	e8 5f f9 ff ff       	call   2740 <__stack_chk_fail@plt>
    2de1:	c9                   	leave  
    2de2:	c3                   	ret    

0000000000002de3 <loopback_ctp_decode>:
    2de3:	f3 0f 1e fa          	endbr64 
    2de7:	55                   	push   rbp
    2de8:	48 89 e5             	mov    rbp,rsp
    2deb:	48 83 ec 60          	sub    rsp,0x60
    2def:	48 89 7d a8          	mov    QWORD PTR [rbp-0x58],rdi
    2df3:	64 48 8b 04 25 28 00 	mov    rax,QWORD PTR fs:0x28
    2dfa:	00 00 
    2dfc:	48 89 45 f8          	mov    QWORD PTR [rbp-0x8],rax
    2e00:	31 c0                	xor    eax,eax
    2e02:	48 8b 45 a8          	mov    rax,QWORD PTR [rbp-0x58]
    2e06:	48 83 c0 0e          	add    rax,0xe
    2e0a:	48 89 45 b0          	mov    QWORD PTR [rbp-0x50],rax
    2e0e:	48 8b 45 a8          	mov    rax,QWORD PTR [rbp-0x58]
    2e12:	48 89 45 b8          	mov    QWORD PTR [rbp-0x48],rax
    2e16:	48 8b 45 b8          	mov    rax,QWORD PTR [rbp-0x48]
    2e1a:	48 83 c0 06          	add    rax,0x6
    2e1e:	48 89 c7             	mov    rdi,rax
    2e21:	e8 7e 01 00 00       	call   2fa4 <uc_mac_ntoa>
    2e26:	48 89 c1             	mov    rcx,rax
    2e29:	48 8d 45 c0          	lea    rax,[rbp-0x40]
    2e2d:	ba 18 00 00 00       	mov    edx,0x18
    2e32:	48 89 ce             	mov    rsi,rcx
    2e35:	48 89 c7             	mov    rdi,rax
    2e38:	e8 83 f9 ff ff       	call   27c0 <strncpy@plt>
    2e3d:	48 8b 45 b8          	mov    rax,QWORD PTR [rbp-0x48]
    2e41:	48 89 c7             	mov    rdi,rax
    2e44:	e8 5b 01 00 00       	call   2fa4 <uc_mac_ntoa>
    2e49:	48 89 c1             	mov    rcx,rax
    2e4c:	48 8d 45 e0          	lea    rax,[rbp-0x20]
    2e50:	ba 18 00 00 00       	mov    edx,0x18
    2e55:	48 89 ce             	mov    rsi,rcx
    2e58:	48 89 c7             	mov    rdi,rax
    2e5b:	e8 60 f9 ff ff       	call   27c0 <strncpy@plt>
    2e60:	0f b6 05 fd 70 10 00 	movzx  eax,BYTE PTR [rip+0x1070fd]        # 109f64 <packet_print>
    2e67:	84 c0                	test   al,al
    2e69:	74 1c                	je     2e87 <loopback_ctp_decode+0xa4>
    2e6b:	48 8d 55 e0          	lea    rdx,[rbp-0x20]
    2e6f:	48 8d 45 c0          	lea    rax,[rbp-0x40]
    2e73:	48 89 c6             	mov    rsi,rax
    2e76:	48 8d 3d 07 93 00 00 	lea    rdi,[rip+0x9307]        # c184 <_IO_stdin_used+0x184>
    2e7d:	b8 00 00 00 00       	mov    eax,0x0
    2e82:	e8 f9 f5 ff ff       	call   2480 <printf@plt>
    2e87:	48 8b 45 b0          	mov    rax,QWORD PTR [rbp-0x50]
    2e8b:	0f b7 40 02          	movzx  eax,WORD PTR [rax+0x2]
    2e8f:	0f b7 c0             	movzx  eax,ax
    2e92:	83 f8 01             	cmp    eax,0x1
    2e95:	75 19                	jne    2eb0 <loopback_ctp_decode+0xcd>
    2e97:	0f b6 05 c6 70 10 00 	movzx  eax,BYTE PTR [rip+0x1070c6]        # 109f64 <packet_print>
    2e9e:	84 c0                	test   al,al
    2ea0:	74 39                	je     2edb <loopback_ctp_decode+0xf8>
    2ea2:	48 8d 3d e9 92 00 00 	lea    rdi,[rip+0x92e9]        # c192 <_IO_stdin_used+0x192>
    2ea9:	e8 32 f6 ff ff       	call   24e0 <puts@plt>
    2eae:	eb 2b                	jmp    2edb <loopback_ctp_decode+0xf8>
    2eb0:	0f b6 05 ad 70 10 00 	movzx  eax,BYTE PTR [rip+0x1070ad]        # 109f64 <packet_print>
    2eb7:	84 c0                	test   al,al
    2eb9:	74 23                	je     2ede <loopback_ctp_decode+0xfb>
    2ebb:	48 8b 45 b0          	mov    rax,QWORD PTR [rbp-0x50]
    2ebf:	0f b7 40 02          	movzx  eax,WORD PTR [rax+0x2]
    2ec3:	0f b7 c0             	movzx  eax,ax
    2ec6:	89 c6                	mov    esi,eax
    2ec8:	48 8d 3d cb 92 00 00 	lea    rdi,[rip+0x92cb]        # c19a <_IO_stdin_used+0x19a>
    2ecf:	b8 00 00 00 00       	mov    eax,0x0
    2ed4:	e8 a7 f5 ff ff       	call   2480 <printf@plt>
    2ed9:	eb 03                	jmp    2ede <loopback_ctp_decode+0xfb>
    2edb:	90                   	nop
    2edc:	eb 01                	jmp    2edf <loopback_ctp_decode+0xfc>
    2ede:	90                   	nop
    2edf:	90                   	nop
    2ee0:	48 8b 45 f8          	mov    rax,QWORD PTR [rbp-0x8]
    2ee4:	64 48 2b 04 25 28 00 	sub    rax,QWORD PTR fs:0x28
    2eeb:	00 00 
    2eed:	74 05                	je     2ef4 <loopback_ctp_decode+0x111>
    2eef:	e8 4c f8 ff ff       	call   2740 <__stack_chk_fail@plt>
    2ef4:	c9                   	leave  
    2ef5:	c3                   	ret    

0000000000002ef6 <mac_ntoa>:
    2ef6:	f3 0f 1e fa          	endbr64 
    2efa:	55                   	push   rbp
    2efb:	48 89 e5             	mov    rbp,rsp
    2efe:	48 83 ec 20          	sub    rsp,0x20
    2f02:	48 89 7d e8          	mov    QWORD PTR [rbp-0x18],rdi
    2f06:	48 8b 45 e8          	mov    rax,QWORD PTR [rbp-0x18]
    2f0a:	48 89 45 f8          	mov    QWORD PTR [rbp-0x8],rax
    2f0e:	48 8b 45 f8          	mov    rax,QWORD PTR [rbp-0x8]
    2f12:	48 83 c0 05          	add    rax,0x5
    2f16:	0f b6 00             	movzx  eax,BYTE PTR [rax]
    2f19:	0f b6 f0             	movzx  esi,al
    2f1c:	48 8b 45 f8          	mov    rax,QWORD PTR [rbp-0x8]
    2f20:	48 83 c0 04          	add    rax,0x4
    2f24:	0f b6 00             	movzx  eax,BYTE PTR [rax]
    2f27:	0f b6 c8             	movzx  ecx,al
    2f2a:	48 8b 45 f8          	mov    rax,QWORD PTR [rbp-0x8]
    2f2e:	48 83 c0 03          	add    rax,0x3
    2f32:	0f b6 00             	movzx  eax,BYTE PTR [rax]
    2f35:	0f b6 d0             	movzx  edx,al
    2f38:	48 8b 45 f8          	mov    rax,QWORD PTR [rbp-0x8]
    2f3c:	48 83 c0 02          	add    rax,0x2
    2f40:	0f b6 00             	movzx  eax,BYTE PTR [rax]
    2f43:	44 0f b6 c8          	movzx  r9d,al
    2f47:	48 8b 45 f8          	mov    rax,QWORD PTR [rbp-0x8]
    2f4b:	48 83 c0 01          	add    rax,0x1
    2f4f:	0f b6 00             	movzx  eax,BYTE PTR [rax]
    2f52:	44 0f b6 c0          	movzx  r8d,al
    2f56:	48 8b 45 f8          	mov    rax,QWORD PTR [rbp-0x8]
    2f5a:	0f b6 00             	movzx  eax,BYTE PTR [rax]
    2f5d:	0f b6 c0             	movzx  eax,al
    2f60:	64 48 8b 3c 25 00 00 	mov    rdi,QWORD PTR fs:0x0
    2f67:	00 00 
    2f69:	48 81 c7 80 fb ff ff 	add    rdi,0xfffffffffffffb80
    2f70:	48 83 ec 08          	sub    rsp,0x8
    2f74:	56                   	push   rsi
    2f75:	51                   	push   rcx
    2f76:	52                   	push   rdx
    2f77:	89 c1                	mov    ecx,eax
    2f79:	48 8d 15 38 92 00 00 	lea    rdx,[rip+0x9238]        # c1b8 <_IO_stdin_used+0x1b8>
    2f80:	be 80 00 00 00       	mov    esi,0x80
    2f85:	b8 00 00 00 00       	mov    eax,0x0
    2f8a:	e8 11 f5 ff ff       	call   24a0 <snprintf@plt>
    2f8f:	48 83 c4 20          	add    rsp,0x20
    2f93:	64 48 8b 04 25 00 00 	mov    rax,QWORD PTR fs:0x0
    2f9a:	00 00 
    2f9c:	48 05 80 fb ff ff    	add    rax,0xfffffffffffffb80
    2fa2:	c9                   	leave  
    2fa3:	c3                   	ret    

0000000000002fa4 <uc_mac_ntoa>:
    2fa4:	f3 0f 1e fa          	endbr64 
    2fa8:	55                   	push   rbp
    2fa9:	48 89 e5             	mov    rbp,rsp
    2fac:	48 83 ec 10          	sub    rsp,0x10
    2fb0:	48 89 7d f8          	mov    QWORD PTR [rbp-0x8],rdi
    2fb4:	48 8b 45 f8          	mov    rax,QWORD PTR [rbp-0x8]
    2fb8:	48 83 c0 05          	add    rax,0x5
    2fbc:	0f b6 00             	movzx  eax,BYTE PTR [rax]
    2fbf:	0f b6 f0             	movzx  esi,al
    2fc2:	48 8b 45 f8          	mov    rax,QWORD PTR [rbp-0x8]
    2fc6:	48 83 c0 04          	add    rax,0x4
    2fca:	0f b6 00             	movzx  eax,BYTE PTR [rax]
    2fcd:	0f b6 c8             	movzx  ecx,al
    2fd0:	48 8b 45 f8          	mov    rax,QWORD PTR [rbp-0x8]
    2fd4:	48 83 c0 03          	add    rax,0x3
    2fd8:	0f b6 00             	movzx  eax,BYTE PTR [rax]
    2fdb:	0f b6 d0             	movzx  edx,al
    2fde:	48 8b 45 f8          	mov    rax,QWORD PTR [rbp-0x8]
    2fe2:	48 83 c0 02          	add    rax,0x2
    2fe6:	0f b6 00             	movzx  eax,BYTE PTR [rax]
    2fe9:	44 0f b6 c8          	movzx  r9d,al
    2fed:	48 8b 45 f8          	mov    rax,QWORD PTR [rbp-0x8]
    2ff1:	48 83 c0 01          	add    rax,0x1
    2ff5:	0f b6 00             	movzx  eax,BYTE PTR [rax]
    2ff8:	44 0f b6 c0          	movzx  r8d,al
    2ffc:	48 8b 45 f8          	mov    rax,QWORD PTR [rbp-0x8]
    3000:	0f b6 00             	movzx  eax,BYTE PTR [rax]
    3003:	0f b6 c0             	movzx  eax,al
    3006:	64 48 8b 3c 25 00 00 	mov    rdi,QWORD PTR fs:0x0
    300d:	00 00 
    300f:	48 81 c7 80 fb ff ff 	add    rdi,0xfffffffffffffb80
    3016:	48 83 ec 08          	sub    rsp,0x8
    301a:	56                   	push   rsi
    301b:	51                   	push   rcx
    301c:	52                   	push   rdx
    301d:	89 c1                	mov    ecx,eax
    301f:	48 8d 15 92 91 00 00 	lea    rdx,[rip+0x9192]        # c1b8 <_IO_stdin_used+0x1b8>
    3026:	be 80 00 00 00       	mov    esi,0x80
    302b:	b8 00 00 00 00       	mov    eax,0x0
    3030:	e8 6b f4 ff ff       	call   24a0 <snprintf@plt>
    3035:	48 83 c4 20          	add    rsp,0x20
    3039:	64 48 8b 04 25 00 00 	mov    rax,QWORD PTR fs:0x0
    3040:	00 00 
    3042:	48 05 80 fb ff ff    	add    rax,0xfffffffffffffb80
    3048:	c9                   	leave  
    3049:	c3                   	ret    

000000000000304a <u8_ipv4_ntoa>:
    304a:	f3 0f 1e fa          	endbr64 
    304e:	55                   	push   rbp
    304f:	48 89 e5             	mov    rbp,rsp
    3052:	48 83 ec 20          	sub    rsp,0x20
    3056:	48 89 7d e8          	mov    QWORD PTR [rbp-0x18],rdi
    305a:	48 8b 45 e8          	mov    rax,QWORD PTR [rbp-0x18]
    305e:	48 89 45 f8          	mov    QWORD PTR [rbp-0x8],rax
    3062:	48 8b 45 f8          	mov    rax,QWORD PTR [rbp-0x8]
    3066:	48 83 c0 03          	add    rax,0x3
    306a:	0f b6 00             	movzx  eax,BYTE PTR [rax]
    306d:	0f b6 d0             	movzx  edx,al
    3070:	48 8b 45 f8          	mov    rax,QWORD PTR [rbp-0x8]
    3074:	48 83 c0 02          	add    rax,0x2
    3078:	0f b6 00             	movzx  eax,BYTE PTR [rax]
    307b:	44 0f b6 c0          	movzx  r8d,al
    307f:	48 8b 45 f8          	mov    rax,QWORD PTR [rbp-0x8]
    3083:	48 83 c0 01          	add    rax,0x1
    3087:	0f b6 00             	movzx  eax,BYTE PTR [rax]
    308a:	0f b6 f0             	movzx  esi,al
    308d:	48 8b 45 f8          	mov    rax,QWORD PTR [rbp-0x8]
    3091:	0f b6 00             	movzx  eax,BYTE PTR [rax]
    3094:	0f b6 c0             	movzx  eax,al
    3097:	64 48 8b 0c 25 00 00 	mov    rcx,QWORD PTR fs:0x0
    309e:	00 00 
    30a0:	48 8d b9 80 fb ff ff 	lea    rdi,[rcx-0x480]
    30a7:	48 83 ec 08          	sub    rsp,0x8
    30ab:	52                   	push   rdx
    30ac:	45 89 c1             	mov    r9d,r8d
    30af:	41 89 f0             	mov    r8d,esi
    30b2:	89 c1                	mov    ecx,eax
    30b4:	48 8d 15 1b 91 00 00 	lea    rdx,[rip+0x911b]        # c1d6 <_IO_stdin_used+0x1d6>
    30bb:	be 80 00 00 00       	mov    esi,0x80
    30c0:	b8 00 00 00 00       	mov    eax,0x0
    30c5:	e8 d6 f3 ff ff       	call   24a0 <snprintf@plt>
    30ca:	48 83 c4 10          	add    rsp,0x10
    30ce:	64 48 8b 04 25 00 00 	mov    rax,QWORD PTR fs:0x0
    30d5:	00 00 
    30d7:	48 05 80 fb ff ff    	add    rax,0xfffffffffffffb80
    30dd:	c9                   	leave  
    30de:	c3                   	ret    

00000000000030df <ipv4_ntoa>:
    30df:	f3 0f 1e fa          	endbr64 
    30e3:	55                   	push   rbp
    30e4:	48 89 e5             	mov    rbp,rsp
    30e7:	48 83 ec 20          	sub    rsp,0x20
    30eb:	89 7d ec             	mov    DWORD PTR [rbp-0x14],edi
    30ee:	48 8d 45 ec          	lea    rax,[rbp-0x14]
    30f2:	48 89 45 f8          	mov    QWORD PTR [rbp-0x8],rax
    30f6:	48 8b 45 f8          	mov    rax,QWORD PTR [rbp-0x8]
    30fa:	48 83 c0 03          	add    rax,0x3
    30fe:	0f b6 00             	movzx  eax,BYTE PTR [rax]
    3101:	0f b6 d0             	movzx  edx,al
    3104:	48 8b 45 f8          	mov    rax,QWORD PTR [rbp-0x8]
    3108:	48 83 c0 02          	add    rax,0x2
    310c:	0f b6 00             	movzx  eax,BYTE PTR [rax]
    310f:	44 0f b6 c0          	movzx  r8d,al
    3113:	48 8b 45 f8          	mov    rax,QWORD PTR [rbp-0x8]
    3117:	48 83 c0 01          	add    rax,0x1
    311b:	0f b6 00             	movzx  eax,BYTE PTR [rax]
    311e:	0f b6 f0             	movzx  esi,al
    3121:	48 8b 45 f8          	mov    rax,QWORD PTR [rbp-0x8]
    3125:	0f b6 00             	movzx  eax,BYTE PTR [rax]
    3128:	0f b6 c0             	movzx  eax,al
    312b:	64 48 8b 0c 25 00 00 	mov    rcx,QWORD PTR fs:0x0
    3132:	00 00 
    3134:	48 8d b9 80 fb ff ff 	lea    rdi,[rcx-0x480]
    313b:	48 83 ec 08          	sub    rsp,0x8
    313f:	52                   	push   rdx
    3140:	45 89 c1             	mov    r9d,r8d
    3143:	41 89 f0             	mov    r8d,esi
    3146:	89 c1                	mov    ecx,eax
    3148:	48 8d 15 87 90 00 00 	lea    rdx,[rip+0x9087]        # c1d6 <_IO_stdin_used+0x1d6>
    314f:	be 80 00 00 00       	mov    esi,0x80
    3154:	b8 00 00 00 00       	mov    eax,0x0
    3159:	e8 42 f3 ff ff       	call   24a0 <snprintf@plt>
    315e:	48 83 c4 10          	add    rsp,0x10
    3162:	64 48 8b 04 25 00 00 	mov    rax,QWORD PTR fs:0x0
    3169:	00 00 
    316b:	48 05 80 fb ff ff    	add    rax,0xfffffffffffffb80
    3171:	c9                   	leave  
    3172:	c3                   	ret    

0000000000003173 <inet6_ntoa>:
    3173:	f3 0f 1e fa          	endbr64 
    3177:	55                   	push   rbp
    3178:	48 89 e5             	mov    rbp,rsp
    317b:	41 57                	push   r15
    317d:	41 56                	push   r14
    317f:	41 55                	push   r13
    3181:	41 54                	push   r12
    3183:	53                   	push   rbx
    3184:	48 83 ec 38          	sub    rsp,0x38
    3188:	48 89 7d b8          	mov    QWORD PTR [rbp-0x48],rdi
    318c:	64 48 8b 04 25 28 00 	mov    rax,QWORD PTR fs:0x28
    3193:	00 00 
    3195:	48 89 45 c8          	mov    QWORD PTR [rbp-0x38],rax
    3199:	31 c0                	xor    eax,eax
    319b:	64 48 8b 04 25 00 00 	mov    rax,QWORD PTR fs:0x0
    31a2:	00 00 
    31a4:	48 05 80 fb ff ff    	add    rax,0xfffffffffffffb80
    31aa:	ba 80 00 00 00       	mov    edx,0x80
    31af:	be 00 00 00 00       	mov    esi,0x0
    31b4:	48 89 c7             	mov    rdi,rax
    31b7:	e8 d4 f2 ff ff       	call   2490 <memset@plt>
    31bc:	48 c7 45 c0 00 00 00 	mov    QWORD PTR [rbp-0x40],0x0
    31c3:	00 
    31c4:	48 8b 45 b8          	mov    rax,QWORD PTR [rbp-0x48]
    31c8:	48 89 45 c0          	mov    QWORD PTR [rbp-0x40],rax
    31cc:	48 8b 45 b8          	mov    rax,QWORD PTR [rbp-0x48]
    31d0:	48 83 c0 0f          	add    rax,0xf
    31d4:	0f b6 00             	movzx  eax,BYTE PTR [rax]
    31d7:	0f b6 c8             	movzx  ecx,al
    31da:	48 8b 45 b8          	mov    rax,QWORD PTR [rbp-0x48]
    31de:	48 83 c0 0e          	add    rax,0xe
    31e2:	0f b6 00             	movzx  eax,BYTE PTR [rax]
    31e5:	0f b6 f8             	movzx  edi,al
    31e8:	48 8b 45 b8          	mov    rax,QWORD PTR [rbp-0x48]
    31ec:	48 83 c0 0d          	add    rax,0xd
    31f0:	0f b6 00             	movzx  eax,BYTE PTR [rax]
    31f3:	0f b6 c0             	movzx  eax,al
    31f6:	89 45 b4             	mov    DWORD PTR [rbp-0x4c],eax
    31f9:	48 8b 45 b8          	mov    rax,QWORD PTR [rbp-0x48]
    31fd:	48 83 c0 0c          	add    rax,0xc
    3201:	0f b6 00             	movzx  eax,BYTE PTR [rax]
    3204:	0f b6 d8             	movzx  ebx,al
    3207:	89 5d b0             	mov    DWORD PTR [rbp-0x50],ebx
    320a:	48 8b 45 b8          	mov    rax,QWORD PTR [rbp-0x48]
    320e:	48 83 c0 0b          	add    rax,0xb
    3212:	0f b6 00             	movzx  eax,BYTE PTR [rax]
    3215:	44 0f b6 f8          	movzx  r15d,al
    3219:	48 8b 45 b8          	mov    rax,QWORD PTR [rbp-0x48]
    321d:	48 83 c0 0a          	add    rax,0xa
    3221:	0f b6 00             	movzx  eax,BYTE PTR [rax]
    3224:	44 0f b6 f0          	movzx  r14d,al
    3228:	48 8b 45 b8          	mov    rax,QWORD PTR [rbp-0x48]
    322c:	48 83 c0 09          	add    rax,0x9
    3230:	0f b6 00             	movzx  eax,BYTE PTR [rax]
    3233:	44 0f b6 e8          	movzx  r13d,al
    3237:	48 8b 45 b8          	mov    rax,QWORD PTR [rbp-0x48]
    323b:	48 83 c0 08          	add    rax,0x8
    323f:	0f b6 00             	movzx  eax,BYTE PTR [rax]
    3242:	44 0f b6 e0          	movzx  r12d,al
    3246:	48 8b 45 b8          	mov    rax,QWORD PTR [rbp-0x48]
    324a:	48 83 c0 07          	add    rax,0x7
    324e:	0f b6 00             	movzx  eax,BYTE PTR [rax]
    3251:	0f b6 d8             	movzx  ebx,al
    3254:	48 8b 45 b8          	mov    rax,QWORD PTR [rbp-0x48]
    3258:	48 83 c0 06          	add    rax,0x6
    325c:	0f b6 00             	movzx  eax,BYTE PTR [rax]
    325f:	44 0f b6 d8          	movzx  r11d,al
    3263:	48 8b 45 b8          	mov    rax,QWORD PTR [rbp-0x48]
    3267:	48 83 c0 05          	add    rax,0x5
    326b:	0f b6 00             	movzx  eax,BYTE PTR [rax]
    326e:	44 0f b6 d0          	movzx  r10d,al
    3272:	48 8b 45 b8          	mov    rax,QWORD PTR [rbp-0x48]
    3276:	48 83 c0 04          	add    rax,0x4
    327a:	0f b6 00             	movzx  eax,BYTE PTR [rax]
    327d:	44 0f b6 c8          	movzx  r9d,al
    3281:	48 8b 45 b8          	mov    rax,QWORD PTR [rbp-0x48]
    3285:	48 83 c0 03          	add    rax,0x3
    3289:	0f b6 00             	movzx  eax,BYTE PTR [rax]
    328c:	44 0f b6 c0          	movzx  r8d,al
    3290:	48 8b 45 b8          	mov    rax,QWORD PTR [rbp-0x48]
    3294:	48 83 c0 02          	add    rax,0x2
    3298:	0f b6 00             	movzx  eax,BYTE PTR [rax]
    329b:	0f b6 d0             	movzx  edx,al
    329e:	89 55 ac             	mov    DWORD PTR [rbp-0x54],edx
    32a1:	48 8b 45 b8          	mov    rax,QWORD PTR [rbp-0x48]
    32a5:	48 83 c0 01          	add    rax,0x1
    32a9:	0f b6 00             	movzx  eax,BYTE PTR [rax]
    32ac:	0f b6 f0             	movzx  esi,al
    32af:	48 8b 45 b8          	mov    rax,QWORD PTR [rbp-0x48]
    32b3:	0f b6 00             	movzx  eax,BYTE PTR [rax]
    32b6:	0f b6 d0             	movzx  edx,al
    32b9:	64 48 8b 04 25 00 00 	mov    rax,QWORD PTR fs:0x0
    32c0:	00 00 
    32c2:	48 05 80 fb ff ff    	add    rax,0xfffffffffffffb80
    32c8:	48 83 ec 08          	sub    rsp,0x8
    32cc:	51                   	push   rcx
    32cd:	57                   	push   rdi
    32ce:	8b 4d b4             	mov    ecx,DWORD PTR [rbp-0x4c]
    32d1:	51                   	push   rcx
    32d2:	8b 4d b0             	mov    ecx,DWORD PTR [rbp-0x50]
    32d5:	51                   	push   rcx
    32d6:	41 57                	push   r15
    32d8:	41 56                	push   r14
    32da:	41 55                	push   r13
    32dc:	41 54                	push   r12
    32de:	53                   	push   rbx
    32df:	41 53                	push   r11
    32e1:	41 52                	push   r10
    32e3:	41 51                	push   r9
    32e5:	41 50                	push   r8
    32e7:	44 8b 4d ac          	mov    r9d,DWORD PTR [rbp-0x54]
    32eb:	41 89 f0             	mov    r8d,esi
    32ee:	89 d1                	mov    ecx,edx
    32f0:	48 8d 15 f1 8e 00 00 	lea    rdx,[rip+0x8ef1]        # c1e8 <_IO_stdin_used+0x1e8>
    32f7:	be 80 00 00 00       	mov    esi,0x80
    32fc:	48 89 c7             	mov    rdi,rax
    32ff:	b8 00 00 00 00       	mov    eax,0x0
    3304:	e8 97 f1 ff ff       	call   24a0 <snprintf@plt>
    3309:	48 83 c4 70          	add    rsp,0x70
    330d:	64 48 8b 04 25 00 00 	mov    rax,QWORD PTR fs:0x0
    3314:	00 00 
    3316:	48 05 80 fb ff ff    	add    rax,0xfffffffffffffb80
    331c:	48 8b 75 c8          	mov    rsi,QWORD PTR [rbp-0x38]
    3320:	64 48 2b 34 25 28 00 	sub    rsi,QWORD PTR fs:0x28
    3327:	00 00 
    3329:	74 05                	je     3330 <inet6_ntoa+0x1bd>
    332b:	e8 10 f4 ff ff       	call   2740 <__stack_chk_fail@plt>
    3330:	48 8d 65 d8          	lea    rsp,[rbp-0x28]
    3334:	5b                   	pop    rbx
    3335:	41 5c                	pop    r12
    3337:	41 5d                	pop    r13
    3339:	41 5e                	pop    r14
    333b:	41 5f                	pop    r15
    333d:	5d                   	pop    rbp
    333e:	c3                   	ret    

000000000000333f <get_formated_time>:
    333f:	f3 0f 1e fa          	endbr64 
    3343:	55                   	push   rbp
    3344:	48 89 e5             	mov    rbp,rsp
    3347:	53                   	push   rbx
    3348:	48 83 ec 58          	sub    rsp,0x58
    334c:	64 48 8b 04 25 28 00 	mov    rax,QWORD PTR fs:0x28
    3353:	00 00 
    3355:	48 89 45 e8          	mov    QWORD PTR [rbp-0x18],rax
    3359:	31 c0                	xor    eax,eax
    335b:	bf ff 00 00 00       	mov    edi,0xff
    3360:	e8 fb f1 ff ff       	call   2560 <malloc@plt>
    3365:	48 89 45 a8          	mov    QWORD PTR [rbp-0x58],rax
    3369:	bf 00 00 00 00       	mov    edi,0x0
    336e:	e8 fd f4 ff ff       	call   2870 <time@plt>
    3373:	48 89 45 a0          	mov    QWORD PTR [rbp-0x60],rax
    3377:	48 8d 45 a0          	lea    rax,[rbp-0x60]
    337b:	48 89 c7             	mov    rdi,rax
    337e:	e8 ad f4 ff ff       	call   2830 <localtime@plt>
    3383:	48 8b 08             	mov    rcx,QWORD PTR [rax]
    3386:	48 8b 58 08          	mov    rbx,QWORD PTR [rax+0x8]
    338a:	48 89 4d b0          	mov    QWORD PTR [rbp-0x50],rcx
    338e:	48 89 5d b8          	mov    QWORD PTR [rbp-0x48],rbx
    3392:	48 8b 48 10          	mov    rcx,QWORD PTR [rax+0x10]
    3396:	48 8b 58 18          	mov    rbx,QWORD PTR [rax+0x18]
    339a:	48 89 4d c0          	mov    QWORD PTR [rbp-0x40],rcx
    339e:	48 89 5d c8          	mov    QWORD PTR [rbp-0x38],rbx
    33a2:	48 8b 48 20          	mov    rcx,QWORD PTR [rax+0x20]
    33a6:	48 8b 58 28          	mov    rbx,QWORD PTR [rax+0x28]
    33aa:	48 89 4d d0          	mov    QWORD PTR [rbp-0x30],rcx
    33ae:	48 89 5d d8          	mov    QWORD PTR [rbp-0x28],rbx
    33b2:	48 8b 40 30          	mov    rax,QWORD PTR [rax+0x30]
    33b6:	48 89 45 e0          	mov    QWORD PTR [rbp-0x20],rax
    33ba:	8b 7d b0             	mov    edi,DWORD PTR [rbp-0x50]
    33bd:	8b 75 b4             	mov    esi,DWORD PTR [rbp-0x4c]
    33c0:	44 8b 4d b8          	mov    r9d,DWORD PTR [rbp-0x48]
    33c4:	44 8b 45 bc          	mov    r8d,DWORD PTR [rbp-0x44]
    33c8:	8b 45 c0             	mov    eax,DWORD PTR [rbp-0x40]
    33cb:	8d 48 01             	lea    ecx,[rax+0x1]
    33ce:	8b 45 c4             	mov    eax,DWORD PTR [rbp-0x3c]
    33d1:	8d 90 6c 07 00 00    	lea    edx,[rax+0x76c]
    33d7:	48 8b 45 a8          	mov    rax,QWORD PTR [rbp-0x58]
    33db:	57                   	push   rdi
    33dc:	56                   	push   rsi
    33dd:	48 8d 35 4c 8e 00 00 	lea    rsi,[rip+0x8e4c]        # c230 <_IO_stdin_used+0x230>
    33e4:	48 89 c7             	mov    rdi,rax
    33e7:	b8 00 00 00 00       	mov    eax,0x0
    33ec:	e8 2f f2 ff ff       	call   2620 <sprintf@plt>
    33f1:	48 83 c4 10          	add    rsp,0x10
    33f5:	48 8b 45 a8          	mov    rax,QWORD PTR [rbp-0x58]
    33f9:	48 8b 5d e8          	mov    rbx,QWORD PTR [rbp-0x18]
    33fd:	64 48 2b 1c 25 28 00 	sub    rbx,QWORD PTR fs:0x28
    3404:	00 00 
    3406:	74 05                	je     340d <get_formated_time+0xce>
    3408:	e8 33 f3 ff ff       	call   2740 <__stack_chk_fail@plt>
    340d:	48 8b 5d f8          	mov    rbx,QWORD PTR [rbp-0x8]
    3411:	c9                   	leave  
    3412:	c3                   	ret    

0000000000003413 <cb_get_formatted_time>:
    3413:	f3 0f 1e fa          	endbr64 
    3417:	55                   	push   rbp
    3418:	48 89 e5             	mov    rbp,rsp
    341b:	53                   	push   rbx
    341c:	48 83 ec 68          	sub    rsp,0x68
    3420:	48 89 7d 98          	mov    QWORD PTR [rbp-0x68],rdi
    3424:	64 48 8b 04 25 28 00 	mov    rax,QWORD PTR fs:0x28
    342b:	00 00 
    342d:	48 89 45 e8          	mov    QWORD PTR [rbp-0x18],rax
    3431:	31 c0                	xor    eax,eax
    3433:	bf 00 00 00 00       	mov    edi,0x0
    3438:	e8 33 f4 ff ff       	call   2870 <time@plt>
    343d:	48 89 45 a8          	mov    QWORD PTR [rbp-0x58],rax
    3441:	48 8d 45 a8          	lea    rax,[rbp-0x58]
    3445:	48 89 c7             	mov    rdi,rax
    3448:	e8 e3 f3 ff ff       	call   2830 <localtime@plt>
    344d:	48 8b 08             	mov    rcx,QWORD PTR [rax]
    3450:	48 8b 58 08          	mov    rbx,QWORD PTR [rax+0x8]
    3454:	48 89 4d b0          	mov    QWORD PTR [rbp-0x50],rcx
    3458:	48 89 5d b8          	mov    QWORD PTR [rbp-0x48],rbx
    345c:	48 8b 48 10          	mov    rcx,QWORD PTR [rax+0x10]
    3460:	48 8b 58 18          	mov    rbx,QWORD PTR [rax+0x18]
    3464:	48 89 4d c0          	mov    QWORD PTR [rbp-0x40],rcx
    3468:	48 89 5d c8          	mov    QWORD PTR [rbp-0x38],rbx
    346c:	48 8b 48 20          	mov    rcx,QWORD PTR [rax+0x20]
    3470:	48 8b 58 28          	mov    rbx,QWORD PTR [rax+0x28]
    3474:	48 89 4d d0          	mov    QWORD PTR [rbp-0x30],rcx
    3478:	48 89 5d d8          	mov    QWORD PTR [rbp-0x28],rbx
    347c:	48 8b 40 30          	mov    rax,QWORD PTR [rax+0x30]
    3480:	48 89 45 e0          	mov    QWORD PTR [rbp-0x20],rax
    3484:	8b 7d b0             	mov    edi,DWORD PTR [rbp-0x50]
    3487:	8b 75 b4             	mov    esi,DWORD PTR [rbp-0x4c]
    348a:	44 8b 4d b8          	mov    r9d,DWORD PTR [rbp-0x48]
    348e:	44 8b 45 bc          	mov    r8d,DWORD PTR [rbp-0x44]
    3492:	8b 45 c0             	mov    eax,DWORD PTR [rbp-0x40]
    3495:	8d 48 01             	lea    ecx,[rax+0x1]
    3498:	8b 45 c4             	mov    eax,DWORD PTR [rbp-0x3c]
    349b:	8d 90 6c 07 00 00    	lea    edx,[rax+0x76c]
    34a1:	48 8b 45 98          	mov    rax,QWORD PTR [rbp-0x68]
    34a5:	57                   	push   rdi
    34a6:	56                   	push   rsi
    34a7:	48 8d 35 82 8d 00 00 	lea    rsi,[rip+0x8d82]        # c230 <_IO_stdin_used+0x230>
    34ae:	48 89 c7             	mov    rdi,rax
    34b1:	b8 00 00 00 00       	mov    eax,0x0
    34b6:	e8 65 f1 ff ff       	call   2620 <sprintf@plt>
    34bb:	48 83 c4 10          	add    rsp,0x10
    34bf:	90                   	nop
    34c0:	48 8b 45 e8          	mov    rax,QWORD PTR [rbp-0x18]
    34c4:	64 48 2b 04 25 28 00 	sub    rax,QWORD PTR fs:0x28
    34cb:	00 00 
    34cd:	74 05                	je     34d4 <cb_get_formatted_time+0xc1>
    34cf:	e8 6c f2 ff ff       	call   2740 <__stack_chk_fail@plt>
    34d4:	48 8b 5d f8          	mov    rbx,QWORD PTR [rbp-0x8]
    34d8:	c9                   	leave  
    34d9:	c3                   	ret    

00000000000034da <strloc>:
    34da:	f3 0f 1e fa          	endbr64 
    34de:	55                   	push   rbp
    34df:	48 89 e5             	mov    rbp,rsp
    34e2:	48 89 7d e8          	mov    QWORD PTR [rbp-0x18],rdi
    34e6:	89 f0                	mov    eax,esi
    34e8:	88 45 e4             	mov    BYTE PTR [rbp-0x1c],al
    34eb:	c7 45 fc 00 00 00 00 	mov    DWORD PTR [rbp-0x4],0x0
    34f2:	eb 1e                	jmp    3512 <strloc+0x38>
    34f4:	8b 45 fc             	mov    eax,DWORD PTR [rbp-0x4]
    34f7:	48 63 d0             	movsxd rdx,eax
    34fa:	48 8b 45 e8          	mov    rax,QWORD PTR [rbp-0x18]
    34fe:	48 01 d0             	add    rax,rdx
    3501:	0f b6 00             	movzx  eax,BYTE PTR [rax]
    3504:	38 45 e4             	cmp    BYTE PTR [rbp-0x1c],al
    3507:	75 05                	jne    350e <strloc+0x34>
    3509:	8b 45 fc             	mov    eax,DWORD PTR [rbp-0x4]
    350c:	eb 1d                	jmp    352b <strloc+0x51>
    350e:	83 45 fc 01          	add    DWORD PTR [rbp-0x4],0x1
    3512:	8b 45 fc             	mov    eax,DWORD PTR [rbp-0x4]
    3515:	48 63 d0             	movsxd rdx,eax
    3518:	48 8b 45 e8          	mov    rax,QWORD PTR [rbp-0x18]
    351c:	48 01 d0             	add    rax,rdx
    351f:	0f b6 00             	movzx  eax,BYTE PTR [rax]
    3522:	84 c0                	test   al,al
    3524:	75 ce                	jne    34f4 <strloc+0x1a>
    3526:	b8 ff ff ff ff       	mov    eax,0xffffffff
    352b:	5d                   	pop    rbp
    352c:	c3                   	ret    

000000000000352d <fail>:
    352d:	f3 0f 1e fa          	endbr64 
    3531:	55                   	push   rbp
    3532:	48 89 e5             	mov    rbp,rsp
    3535:	48 83 ec 10          	sub    rsp,0x10
    3539:	48 89 7d f8          	mov    QWORD PTR [rbp-0x8],rdi
    353d:	48 89 75 f0          	mov    QWORD PTR [rbp-0x10],rsi
    3541:	48 8b 55 f0          	mov    rdx,QWORD PTR [rbp-0x10]
    3545:	48 8b 45 f8          	mov    rax,QWORD PTR [rbp-0x8]
    3549:	48 89 c6             	mov    rsi,rax
    354c:	48 8d 3d f9 8c 00 00 	lea    rdi,[rip+0x8cf9]        # c24c <_IO_stdin_used+0x24c>
    3553:	b8 00 00 00 00       	mov    eax,0x0
    3558:	e8 23 ef ff ff       	call   2480 <printf@plt>
    355d:	90                   	nop
    355e:	c9                   	leave  
    355f:	c3                   	ret    

0000000000003560 <char_is_printable>:
    3560:	f3 0f 1e fa          	endbr64 
    3564:	55                   	push   rbp
    3565:	48 89 e5             	mov    rbp,rsp
    3568:	89 f8                	mov    eax,edi
    356a:	88 45 fc             	mov    BYTE PTR [rbp-0x4],al
    356d:	80 7d fc 1f          	cmp    BYTE PTR [rbp-0x4],0x1f
    3571:	7f 07                	jg     357a <char_is_printable+0x1a>
    3573:	b8 00 00 00 00       	mov    eax,0x0
    3578:	eb 05                	jmp    357f <char_is_printable+0x1f>
    357a:	b8 01 00 00 00       	mov    eax,0x1
    357f:	5d                   	pop    rbp
    3580:	c3                   	ret    

0000000000003581 <test_string_arr_print>:
    3581:	f3 0f 1e fa          	endbr64 
    3585:	55                   	push   rbp
    3586:	48 89 e5             	mov    rbp,rsp
    3589:	53                   	push   rbx
    358a:	48 83 ec 28          	sub    rsp,0x28
    358e:	48 89 7d d8          	mov    QWORD PTR [rbp-0x28],rdi
    3592:	c7 45 ec 00 00 00 00 	mov    DWORD PTR [rbp-0x14],0x0
    3599:	eb 2c                	jmp    35c7 <test_string_arr_print+0x46>
    359b:	8b 45 ec             	mov    eax,DWORD PTR [rbp-0x14]
    359e:	48 63 d0             	movsxd rdx,eax
    35a1:	48 8b 45 d8          	mov    rax,QWORD PTR [rbp-0x28]
    35a5:	48 01 d0             	add    rax,rdx
    35a8:	0f b6 00             	movzx  eax,BYTE PTR [rax]
    35ab:	0f be c0             	movsx  eax,al
    35ae:	89 c7                	mov    edi,eax
    35b0:	e8 ab ff ff ff       	call   3560 <char_is_printable>
    35b5:	83 f0 01             	xor    eax,0x1
    35b8:	84 c0                	test   al,al
    35ba:	74 07                	je     35c3 <test_string_arr_print+0x42>
    35bc:	b8 00 00 00 00       	mov    eax,0x0
    35c1:	eb 20                	jmp    35e3 <test_string_arr_print+0x62>
    35c3:	83 45 ec 01          	add    DWORD PTR [rbp-0x14],0x1
    35c7:	8b 45 ec             	mov    eax,DWORD PTR [rbp-0x14]
    35ca:	48 63 d8             	movsxd rbx,eax
    35cd:	48 8b 45 d8          	mov    rax,QWORD PTR [rbp-0x28]
    35d1:	48 89 c7             	mov    rdi,rax
    35d4:	e8 27 f0 ff ff       	call   2600 <strlen@plt>
    35d9:	48 39 c3             	cmp    rbx,rax
    35dc:	72 bd                	jb     359b <test_string_arr_print+0x1a>
    35de:	b8 01 00 00 00       	mov    eax,0x1
    35e3:	48 8b 5d f8          	mov    rbx,QWORD PTR [rbp-0x8]
    35e7:	c9                   	leave  
    35e8:	c3                   	ret    

00000000000035e9 <ipv4pktmgr>:
    35e9:	f3 0f 1e fa          	endbr64 
    35ed:	55                   	push   rbp
    35ee:	48 89 e5             	mov    rbp,rsp
    35f1:	48 81 ec d0 04 00 00 	sub    rsp,0x4d0
    35f8:	48 89 bd 38 fb ff ff 	mov    QWORD PTR [rbp-0x4c8],rdi
    35ff:	48 89 b5 30 fb ff ff 	mov    QWORD PTR [rbp-0x4d0],rsi
    3606:	64 48 8b 04 25 28 00 	mov    rax,QWORD PTR fs:0x28
    360d:	00 00 
    360f:	48 89 45 f8          	mov    QWORD PTR [rbp-0x8],rax
    3613:	31 c0                	xor    eax,eax
    3615:	48 8b 85 38 fb ff ff 	mov    rax,QWORD PTR [rbp-0x4c8]
    361c:	48 83 c0 0e          	add    rax,0xe
    3620:	48 89 85 58 fb ff ff 	mov    QWORD PTR [rbp-0x4a8],rax
    3627:	48 8b 85 58 fb ff ff 	mov    rax,QWORD PTR [rbp-0x4a8]
    362e:	8b 40 10             	mov    eax,DWORD PTR [rax+0x10]
    3631:	89 c7                	mov    edi,eax
    3633:	e8 08 f0 ff ff       	call   2640 <ntohl@plt>
    3638:	89 85 7c fb ff ff    	mov    DWORD PTR [rbp-0x484],eax
    363e:	48 8b 85 58 fb ff ff 	mov    rax,QWORD PTR [rbp-0x4a8]
    3645:	8b 40 0c             	mov    eax,DWORD PTR [rax+0xc]
    3648:	89 c7                	mov    edi,eax
    364a:	e8 f1 ef ff ff       	call   2640 <ntohl@plt>
    364f:	89 85 78 fb ff ff    	mov    DWORD PTR [rbp-0x488],eax
    3655:	8b 95 78 fb ff ff    	mov    edx,DWORD PTR [rbp-0x488]
    365b:	8b 05 67 69 10 00    	mov    eax,DWORD PTR [rip+0x106967]        # 109fc8 <homenetmask>
    3661:	21 d0                	and    eax,edx
    3663:	89 85 4c fb ff ff    	mov    DWORD PTR [rbp-0x4b4],eax
    3669:	8b 95 7c fb ff ff    	mov    edx,DWORD PTR [rbp-0x484]
    366f:	8b 05 53 69 10 00    	mov    eax,DWORD PTR [rip+0x106953]        # 109fc8 <homenetmask>
    3675:	21 d0                	and    eax,edx
    3677:	89 85 50 fb ff ff    	mov    DWORD PTR [rbp-0x4b0],eax
    367d:	8b 05 41 69 10 00    	mov    eax,DWORD PTR [rip+0x106941]        # 109fc4 <homenet>
    3683:	39 85 4c fb ff ff    	cmp    DWORD PTR [rbp-0x4b4],eax
    3689:	75 0c                	jne    3697 <ipv4pktmgr+0xae>
    368b:	c7 85 80 fb ff ff 45 	mov    DWORD PTR [rbp-0x480],0x45
    3692:	00 00 00 
    3695:	eb 24                	jmp    36bb <ipv4pktmgr+0xd2>
    3697:	8b 05 27 69 10 00    	mov    eax,DWORD PTR [rip+0x106927]        # 109fc4 <homenet>
    369d:	39 85 50 fb ff ff    	cmp    DWORD PTR [rbp-0x4b0],eax
    36a3:	75 0c                	jne    36b1 <ipv4pktmgr+0xc8>
    36a5:	c7 85 80 fb ff ff 46 	mov    DWORD PTR [rbp-0x480],0x46
    36ac:	00 00 00 
    36af:	eb 0a                	jmp    36bb <ipv4pktmgr+0xd2>
    36b1:	c7 85 80 fb ff ff 47 	mov    DWORD PTR [rbp-0x480],0x47
    36b8:	00 00 00 
    36bb:	48 8b 85 30 fb ff ff 	mov    rax,QWORD PTR [rbp-0x4d0]
    36c2:	8b 40 14             	mov    eax,DWORD PTR [rax+0x14]
    36c5:	89 85 90 fb ff ff    	mov    DWORD PTR [rbp-0x470],eax
    36cb:	48 8b 85 58 fb ff ff 	mov    rax,QWORD PTR [rbp-0x4a8]
    36d2:	48 89 85 a8 fb ff ff 	mov    QWORD PTR [rbp-0x458],rax
    36d9:	48 8b 85 30 fb ff ff 	mov    rax,QWORD PTR [rbp-0x4d0]
    36e0:	8b 40 14             	mov    eax,DWORD PTR [rax+0x14]
    36e3:	48 8b 95 38 fb ff ff 	mov    rdx,QWORD PTR [rbp-0x4c8]
    36ea:	48 83 c2 0e          	add    rdx,0xe
    36ee:	0f b6 12             	movzx  edx,BYTE PTR [rdx]
    36f1:	83 e2 0f             	and    edx,0xf
    36f4:	0f b6 d2             	movzx  edx,dl
    36f7:	c1 e2 02             	shl    edx,0x2
    36fa:	29 d0                	sub    eax,edx
    36fc:	83 e8 0e             	sub    eax,0xe
    36ff:	89 85 54 fb ff ff    	mov    DWORD PTR [rbp-0x4ac],eax
    3705:	48 8b 85 58 fb ff ff 	mov    rax,QWORD PTR [rbp-0x4a8]
    370c:	8b 40 10             	mov    eax,DWORD PTR [rax+0x10]
    370f:	89 c7                	mov    edi,eax
    3711:	e8 c9 f9 ff ff       	call   30df <ipv4_ntoa>
    3716:	48 89 c1             	mov    rcx,rax
    3719:	48 8d 85 e0 fb ff ff 	lea    rax,[rbp-0x420]
    3720:	ba 10 00 00 00       	mov    edx,0x10
    3725:	48 89 ce             	mov    rsi,rcx
    3728:	48 89 c7             	mov    rdi,rax
    372b:	e8 90 f0 ff ff       	call   27c0 <strncpy@plt>
    3730:	48 8b 85 58 fb ff ff 	mov    rax,QWORD PTR [rbp-0x4a8]
    3737:	8b 40 0c             	mov    eax,DWORD PTR [rax+0xc]
    373a:	89 c7                	mov    edi,eax
    373c:	e8 9e f9 ff ff       	call   30df <ipv4_ntoa>
    3741:	48 89 c1             	mov    rcx,rax
    3744:	48 8d 85 d0 fb ff ff 	lea    rax,[rbp-0x430]
    374b:	ba 10 00 00 00       	mov    edx,0x10
    3750:	48 89 ce             	mov    rsi,rcx
    3753:	48 89 c7             	mov    rdi,rax
    3756:	e8 65 f0 ff ff       	call   27c0 <strncpy@plt>
    375b:	48 8d 85 e0 fb ff ff 	lea    rax,[rbp-0x420]
    3762:	48 89 c7             	mov    rdi,rax
    3765:	e8 74 41 00 00       	call   78de <init_member>
    376a:	48 8d 85 d0 fb ff ff 	lea    rax,[rbp-0x430]
    3771:	48 89 c7             	mov    rdi,rax
    3774:	e8 65 41 00 00       	call   78de <init_member>
    3779:	48 8d 85 e0 fb ff ff 	lea    rax,[rbp-0x420]
    3780:	48 89 c7             	mov    rdi,rax
    3783:	e8 96 20 00 00       	call   581e <is_blocked_ipv4>
    3788:	84 c0                	test   al,al
    378a:	74 44                	je     37d0 <ipv4pktmgr+0x1e7>
    378c:	b8 00 00 00 00       	mov    eax,0x0
    3791:	e8 a9 fb ff ff       	call   333f <get_formated_time>
    3796:	48 89 c6             	mov    rsi,rax
    3799:	48 8d 95 e0 fb ff ff 	lea    rdx,[rbp-0x420]
    37a0:	48 8d 85 f0 fb ff ff 	lea    rax,[rbp-0x410]
    37a7:	48 89 d1             	mov    rcx,rdx
    37aa:	48 89 f2             	mov    rdx,rsi
    37ad:	48 8d 35 a4 8a 00 00 	lea    rsi,[rip+0x8aa4]        # c258 <_IO_stdin_used+0x258>
    37b4:	48 89 c7             	mov    rdi,rax
    37b7:	b8 00 00 00 00       	mov    eax,0x0
    37bc:	e8 5f ee ff ff       	call   2620 <sprintf@plt>
    37c1:	48 8d 85 f0 fb ff ff 	lea    rax,[rbp-0x410]
    37c8:	48 89 c7             	mov    rdi,rax
    37cb:	e8 ef 58 00 00       	call   90bf <saprintf>
    37d0:	48 8d 85 d0 fb ff ff 	lea    rax,[rbp-0x430]
    37d7:	48 89 c7             	mov    rdi,rax
    37da:	e8 3f 20 00 00       	call   581e <is_blocked_ipv4>
    37df:	84 c0                	test   al,al
    37e1:	74 44                	je     3827 <ipv4pktmgr+0x23e>
    37e3:	b8 00 00 00 00       	mov    eax,0x0
    37e8:	e8 52 fb ff ff       	call   333f <get_formated_time>
    37ed:	48 89 c6             	mov    rsi,rax
    37f0:	48 8d 95 d0 fb ff ff 	lea    rdx,[rbp-0x430]
    37f7:	48 8d 85 f0 fb ff ff 	lea    rax,[rbp-0x410]
    37fe:	48 89 d1             	mov    rcx,rdx
    3801:	48 89 f2             	mov    rdx,rsi
    3804:	48 8d 35 7d 8a 00 00 	lea    rsi,[rip+0x8a7d]        # c288 <_IO_stdin_used+0x288>
    380b:	48 89 c7             	mov    rdi,rax
    380e:	b8 00 00 00 00       	mov    eax,0x0
    3813:	e8 08 ee ff ff       	call   2620 <sprintf@plt>
    3818:	48 8d 85 f0 fb ff ff 	lea    rax,[rbp-0x410]
    381f:	48 89 c7             	mov    rdi,rax
    3822:	e8 98 58 00 00       	call   90bf <saprintf>
    3827:	48 8d 85 d0 fb ff ff 	lea    rax,[rbp-0x430]
    382e:	48 89 85 68 fb ff ff 	mov    QWORD PTR [rbp-0x498],rax
    3835:	48 8d 85 e0 fb ff ff 	lea    rax,[rbp-0x420]
    383c:	48 89 85 70 fb ff ff 	mov    QWORD PTR [rbp-0x490],rax
    3843:	48 8b 85 58 fb ff ff 	mov    rax,QWORD PTR [rbp-0x4a8]
    384a:	0f b7 40 06          	movzx  eax,WORD PTR [rax+0x6]
    384e:	66 83 f8 20          	cmp    ax,0x20
    3852:	74 11                	je     3865 <ipv4pktmgr+0x27c>
    3854:	48 8b 85 58 fb ff ff 	mov    rax,QWORD PTR [rbp-0x4a8]
    385b:	0f b7 40 06          	movzx  eax,WORD PTR [rax+0x6]
    385f:	66 3d 02 01          	cmp    ax,0x102
    3863:	75 66                	jne    38cb <ipv4pktmgr+0x2e2>
    3865:	48 8d 35 44 8a 00 00 	lea    rsi,[rip+0x8a44]        # c2b0 <_IO_stdin_used+0x2b0>
    386c:	48 8d 3d 42 8a 00 00 	lea    rdi,[rip+0x8a42]        # c2b5 <_IO_stdin_used+0x2b5>
    3873:	b8 00 00 00 00       	mov    eax,0x0
    3878:	e8 03 ec ff ff       	call   2480 <printf@plt>
    387d:	0f b6 05 e0 66 10 00 	movzx  eax,BYTE PTR [rip+0x1066e0]        # 109f64 <packet_print>
    3884:	84 c0                	test   al,al
    3886:	74 1a                	je     38a2 <ipv4pktmgr+0x2b9>
    3888:	48 8d 35 34 8a 00 00 	lea    rsi,[rip+0x8a34]        # c2c3 <_IO_stdin_used+0x2c3>
    388f:	48 8d 3d 32 8a 00 00 	lea    rdi,[rip+0x8a32]        # c2c8 <_IO_stdin_used+0x2c8>
    3896:	b8 00 00 00 00       	mov    eax,0x0
    389b:	e8 e0 eb ff ff       	call   2480 <printf@plt>
    38a0:	eb 29                	jmp    38cb <ipv4pktmgr+0x2e2>
    38a2:	48 8d 95 e0 fb ff ff 	lea    rdx,[rbp-0x420]
    38a9:	48 8d 85 d0 fb ff ff 	lea    rax,[rbp-0x430]
    38b0:	48 8d 0d 0c 8a 00 00 	lea    rcx,[rip+0x8a0c]        # c2c3 <_IO_stdin_used+0x2c3>
    38b7:	48 89 c6             	mov    rsi,rax
    38ba:	48 8d 3d 0a 8a 00 00 	lea    rdi,[rip+0x8a0a]        # c2cb <_IO_stdin_used+0x2cb>
    38c1:	b8 00 00 00 00       	mov    eax,0x0
    38c6:	e8 b5 eb ff ff       	call   2480 <printf@plt>
    38cb:	48 8b 85 58 fb ff ff 	mov    rax,QWORD PTR [rbp-0x4a8]
    38d2:	0f b6 40 09          	movzx  eax,BYTE PTR [rax+0x9]
    38d6:	0f b6 c0             	movzx  eax,al
    38d9:	83 f8 11             	cmp    eax,0x11
    38dc:	0f 84 b8 00 00 00    	je     399a <ipv4pktmgr+0x3b1>
    38e2:	83 f8 11             	cmp    eax,0x11
    38e5:	0f 8f db 00 00 00    	jg     39c6 <ipv4pktmgr+0x3dd>
    38eb:	83 f8 06             	cmp    eax,0x6
    38ee:	74 7e                	je     396e <ipv4pktmgr+0x385>
    38f0:	83 f8 06             	cmp    eax,0x6
    38f3:	0f 8f cd 00 00 00    	jg     39c6 <ipv4pktmgr+0x3dd>
    38f9:	83 f8 01             	cmp    eax,0x1
    38fc:	74 0a                	je     3908 <ipv4pktmgr+0x31f>
    38fe:	83 f8 02             	cmp    eax,0x2
    3901:	74 2d                	je     3930 <ipv4pktmgr+0x347>
    3903:	e9 be 00 00 00       	jmp    39c6 <ipv4pktmgr+0x3dd>
    3908:	c7 85 8c fb ff ff 80 	mov    DWORD PTR [rbp-0x474],0x80
    390f:	00 00 00 
    3912:	48 8d 95 60 fb ff ff 	lea    rdx,[rbp-0x4a0]
    3919:	48 8b 85 38 fb ff ff 	mov    rax,QWORD PTR [rbp-0x4c8]
    3920:	48 89 d6             	mov    rsi,rdx
    3923:	48 89 c7             	mov    rdi,rax
    3926:	e8 40 02 00 00       	call   3b6b <ip4_icmp_decode>
    392b:	e9 c7 00 00 00       	jmp    39f7 <ipv4pktmgr+0x40e>
    3930:	c7 85 8c fb ff ff ff 	mov    DWORD PTR [rbp-0x474],0xffffffff
    3937:	ff ff ff 
    393a:	8b 05 00 d7 00 00    	mov    eax,DWORD PTR [rip+0xd700]        # 11040 <total_conversations>
    3940:	83 e8 01             	sub    eax,0x1
    3943:	89 05 f7 d6 00 00    	mov    DWORD PTR [rip+0xd6f7],eax        # 11040 <total_conversations>
    3949:	48 8b 95 70 fb ff ff 	mov    rdx,QWORD PTR [rbp-0x490]
    3950:	48 8b 8d 68 fb ff ff 	mov    rcx,QWORD PTR [rbp-0x498]
    3957:	48 8b 85 38 fb ff ff 	mov    rax,QWORD PTR [rbp-0x4c8]
    395e:	48 89 ce             	mov    rsi,rcx
    3961:	48 89 c7             	mov    rdi,rax
    3964:	e8 2e 14 00 00       	call   4d97 <ip4_igmp_decode>
    3969:	e9 89 00 00 00       	jmp    39f7 <ipv4pktmgr+0x40e>
    396e:	c7 85 8c fb ff ff 7e 	mov    DWORD PTR [rbp-0x474],0x7e
    3975:	00 00 00 
    3978:	48 8b 95 30 fb ff ff 	mov    rdx,QWORD PTR [rbp-0x4d0]
    397f:	48 8d 8d 60 fb ff ff 	lea    rcx,[rbp-0x4a0]
    3986:	48 8b 85 38 fb ff ff 	mov    rax,QWORD PTR [rbp-0x4c8]
    398d:	48 89 ce             	mov    rsi,rcx
    3990:	48 89 c7             	mov    rdi,rax
    3993:	e8 17 0a 00 00       	call   43af <ip4_tcp_decode>
    3998:	eb 5d                	jmp    39f7 <ipv4pktmgr+0x40e>
    399a:	c7 85 8c fb ff ff 7f 	mov    DWORD PTR [rbp-0x474],0x7f
    39a1:	00 00 00 
    39a4:	48 8b 95 30 fb ff ff 	mov    rdx,QWORD PTR [rbp-0x4d0]
    39ab:	48 8d 8d 60 fb ff ff 	lea    rcx,[rbp-0x4a0]
    39b2:	48 8b 85 38 fb ff ff 	mov    rax,QWORD PTR [rbp-0x4c8]
    39b9:	48 89 ce             	mov    rsi,rcx
    39bc:	48 89 c7             	mov    rdi,rax
    39bf:	e8 7e 12 00 00       	call   4c42 <ip4_udp_decode>
    39c4:	eb 31                	jmp    39f7 <ipv4pktmgr+0x40e>
    39c6:	48 8b 85 58 fb ff ff 	mov    rax,QWORD PTR [rbp-0x4a8]
    39cd:	0f b6 40 09          	movzx  eax,BYTE PTR [rax+0x9]
    39d1:	0f b6 c8             	movzx  ecx,al
    39d4:	48 8b 95 70 fb ff ff 	mov    rdx,QWORD PTR [rbp-0x490]
    39db:	48 8b 85 68 fb ff ff 	mov    rax,QWORD PTR [rbp-0x498]
    39e2:	48 89 c6             	mov    rsi,rax
    39e5:	48 8d 3d ec 88 00 00 	lea    rdi,[rip+0x88ec]        # c2d8 <_IO_stdin_used+0x2d8>
    39ec:	b8 00 00 00 00       	mov    eax,0x0
    39f1:	e8 8a ea ff ff       	call   2480 <printf@plt>
    39f6:	90                   	nop
    39f7:	90                   	nop
    39f8:	48 8b 45 f8          	mov    rax,QWORD PTR [rbp-0x8]
    39fc:	64 48 2b 04 25 28 00 	sub    rax,QWORD PTR fs:0x28
    3a03:	00 00 
    3a05:	74 05                	je     3a0c <ipv4pktmgr+0x423>
    3a07:	e8 34 ed ff ff       	call   2740 <__stack_chk_fail@plt>
    3a0c:	c9                   	leave  
    3a0d:	c3                   	ret    

0000000000003a0e <ip6_icmp_decode>:
    3a0e:	f3 0f 1e fa          	endbr64 
    3a12:	55                   	push   rbp
    3a13:	48 89 e5             	mov    rbp,rsp
    3a16:	48 83 c4 80          	add    rsp,0xffffffffffffff80
    3a1a:	48 89 7d 98          	mov    QWORD PTR [rbp-0x68],rdi
    3a1e:	48 89 75 90          	mov    QWORD PTR [rbp-0x70],rsi
    3a22:	48 89 55 88          	mov    QWORD PTR [rbp-0x78],rdx
    3a26:	64 48 8b 04 25 28 00 	mov    rax,QWORD PTR fs:0x28
    3a2d:	00 00 
    3a2f:	48 89 45 f8          	mov    QWORD PTR [rbp-0x8],rax
    3a33:	31 c0                	xor    eax,eax
    3a35:	48 8b 45 98          	mov    rax,QWORD PTR [rbp-0x68]
    3a39:	48 83 c0 36          	add    rax,0x36
    3a3d:	48 89 45 a8          	mov    QWORD PTR [rbp-0x58],rax
    3a41:	0f b6 05 1c 65 10 00 	movzx  eax,BYTE PTR [rip+0x10651c]        # 109f64 <packet_print>
    3a48:	84 c0                	test   al,al
    3a4a:	0f 84 04 01 00 00    	je     3b54 <ip6_icmp_decode+0x146>
    3a50:	48 8d 35 a9 88 00 00 	lea    rsi,[rip+0x88a9]        # c300 <_IO_stdin_used+0x300>
    3a57:	48 8d 3d a8 88 00 00 	lea    rdi,[rip+0x88a8]        # c306 <_IO_stdin_used+0x306>
    3a5e:	b8 00 00 00 00       	mov    eax,0x0
    3a63:	e8 18 ea ff ff       	call   2480 <printf@plt>
    3a68:	48 8b 55 88          	mov    rdx,QWORD PTR [rbp-0x78]
    3a6c:	48 8b 45 90          	mov    rax,QWORD PTR [rbp-0x70]
    3a70:	48 89 c6             	mov    rsi,rax
    3a73:	48 8d 3d 8f 88 00 00 	lea    rdi,[rip+0x888f]        # c309 <_IO_stdin_used+0x309>
    3a7a:	b8 00 00 00 00       	mov    eax,0x0
    3a7f:	e8 fc e9 ff ff       	call   2480 <printf@plt>
    3a84:	48 8d 3d 8d 88 00 00 	lea    rdi,[rip+0x888d]        # c318 <_IO_stdin_used+0x318>
    3a8b:	b8 00 00 00 00       	mov    eax,0x0
    3a90:	e8 eb e9 ff ff       	call   2480 <printf@plt>
    3a95:	48 8b 45 a8          	mov    rax,QWORD PTR [rbp-0x58]
    3a99:	0f b6 00             	movzx  eax,BYTE PTR [rax]
    3a9c:	0f b6 c0             	movzx  eax,al
    3a9f:	3d 8f 00 00 00       	cmp    eax,0x8f
    3aa4:	74 68                	je     3b0e <ip6_icmp_decode+0x100>
    3aa6:	3d 8f 00 00 00       	cmp    eax,0x8f
    3aab:	0f 8f 8b 00 00 00    	jg     3b3c <ip6_icmp_decode+0x12e>
    3ab1:	3d 87 00 00 00       	cmp    eax,0x87
    3ab6:	74 77                	je     3b2f <ip6_icmp_decode+0x121>
    3ab8:	3d 87 00 00 00       	cmp    eax,0x87
    3abd:	7f 7d                	jg     3b3c <ip6_icmp_decode+0x12e>
    3abf:	3d 82 00 00 00       	cmp    eax,0x82
    3ac4:	74 56                	je     3b1c <ip6_icmp_decode+0x10e>
    3ac6:	3d 85 00 00 00       	cmp    eax,0x85
    3acb:	75 6f                	jne    3b3c <ip6_icmp_decode+0x12e>
    3acd:	48 8b 45 a8          	mov    rax,QWORD PTR [rbp-0x58]
    3ad1:	48 83 c0 0a          	add    rax,0xa
    3ad5:	48 89 c7             	mov    rdi,rax
    3ad8:	e8 19 f4 ff ff       	call   2ef6 <mac_ntoa>
    3add:	48 89 c1             	mov    rcx,rax
    3ae0:	48 8d 45 b0          	lea    rax,[rbp-0x50]
    3ae4:	ba 40 00 00 00       	mov    edx,0x40
    3ae9:	48 89 ce             	mov    rsi,rcx
    3aec:	48 89 c7             	mov    rdi,rax
    3aef:	e8 cc ec ff ff       	call   27c0 <strncpy@plt>
    3af4:	48 8d 45 b0          	lea    rax,[rbp-0x50]
    3af8:	48 89 c6             	mov    rsi,rax
    3afb:	48 8d 3d 1f 88 00 00 	lea    rdi,[rip+0x881f]        # c321 <_IO_stdin_used+0x321>
    3b02:	b8 00 00 00 00       	mov    eax,0x0
    3b07:	e8 74 e9 ff ff       	call   2480 <printf@plt>
    3b0c:	eb 2e                	jmp    3b3c <ip6_icmp_decode+0x12e>
    3b0e:	48 8d 3d 2b 88 00 00 	lea    rdi,[rip+0x882b]        # c340 <_IO_stdin_used+0x340>
    3b15:	e8 c6 e9 ff ff       	call   24e0 <puts@plt>
    3b1a:	eb 20                	jmp    3b3c <ip6_icmp_decode+0x12e>
    3b1c:	48 8d 3d 42 88 00 00 	lea    rdi,[rip+0x8842]        # c365 <_IO_stdin_used+0x365>
    3b23:	b8 00 00 00 00       	mov    eax,0x0
    3b28:	e8 53 e9 ff ff       	call   2480 <printf@plt>
    3b2d:	eb 0d                	jmp    3b3c <ip6_icmp_decode+0x12e>
    3b2f:	48 8d 3d 49 88 00 00 	lea    rdi,[rip+0x8849]        # c37f <_IO_stdin_used+0x37f>
    3b36:	e8 a5 e9 ff ff       	call   24e0 <puts@plt>
    3b3b:	90                   	nop
    3b3c:	48 8d 35 52 88 00 00 	lea    rsi,[rip+0x8852]        # c395 <_IO_stdin_used+0x395>
    3b43:	48 8d 3d bc 87 00 00 	lea    rdi,[rip+0x87bc]        # c306 <_IO_stdin_used+0x306>
    3b4a:	b8 00 00 00 00       	mov    eax,0x0
    3b4f:	e8 2c e9 ff ff       	call   2480 <printf@plt>
    3b54:	90                   	nop
    3b55:	48 8b 45 f8          	mov    rax,QWORD PTR [rbp-0x8]
    3b59:	64 48 2b 04 25 28 00 	sub    rax,QWORD PTR fs:0x28
    3b60:	00 00 
    3b62:	74 05                	je     3b69 <ip6_icmp_decode+0x15b>
    3b64:	e8 d7 eb ff ff       	call   2740 <__stack_chk_fail@plt>
    3b69:	c9                   	leave  
    3b6a:	c3                   	ret    

0000000000003b6b <ip4_icmp_decode>:
    3b6b:	f3 0f 1e fa          	endbr64 
    3b6f:	55                   	push   rbp
    3b70:	48 89 e5             	mov    rbp,rsp
    3b73:	48 81 ec 20 01 00 00 	sub    rsp,0x120
    3b7a:	48 89 bd e8 fe ff ff 	mov    QWORD PTR [rbp-0x118],rdi
    3b81:	48 89 b5 e0 fe ff ff 	mov    QWORD PTR [rbp-0x120],rsi
    3b88:	64 48 8b 04 25 28 00 	mov    rax,QWORD PTR fs:0x28
    3b8f:	00 00 
    3b91:	48 89 45 f8          	mov    QWORD PTR [rbp-0x8],rax
    3b95:	31 c0                	xor    eax,eax
    3b97:	48 8b 85 e0 fe ff ff 	mov    rax,QWORD PTR [rbp-0x120]
    3b9e:	48 8b 40 08          	mov    rax,QWORD PTR [rax+0x8]
    3ba2:	ba 5e 00 00 00       	mov    edx,0x5e
    3ba7:	be 01 00 00 00       	mov    esi,0x1
    3bac:	48 89 c7             	mov    rdi,rax
    3baf:	e8 e2 12 00 00       	call   4e96 <add_ip_addr_or_inc_counter>
    3bb4:	48 8b 85 e0 fe ff ff 	mov    rax,QWORD PTR [rbp-0x120]
    3bbb:	48 8b 40 10          	mov    rax,QWORD PTR [rax+0x10]
    3bbf:	ba 5e 00 00 00       	mov    edx,0x5e
    3bc4:	be 00 00 00 00       	mov    esi,0x0
    3bc9:	48 89 c7             	mov    rdi,rax
    3bcc:	e8 c5 12 00 00       	call   4e96 <add_ip_addr_or_inc_counter>
    3bd1:	48 8b 85 e0 fe ff ff 	mov    rax,QWORD PTR [rbp-0x120]
    3bd8:	48 8b 40 08          	mov    rax,QWORD PTR [rax+0x8]
    3bdc:	48 89 85 08 ff ff ff 	mov    QWORD PTR [rbp-0xf8],rax
    3be3:	48 8b 85 e0 fe ff ff 	mov    rax,QWORD PTR [rbp-0x120]
    3bea:	48 8b 40 10          	mov    rax,QWORD PTR [rax+0x10]
    3bee:	48 89 85 10 ff ff ff 	mov    QWORD PTR [rbp-0xf0],rax
    3bf5:	48 8b 85 e8 fe ff ff 	mov    rax,QWORD PTR [rbp-0x118]
    3bfc:	48 83 c0 22          	add    rax,0x22
    3c00:	48 89 85 18 ff ff ff 	mov    QWORD PTR [rbp-0xe8],rax
    3c07:	48 8b 85 e8 fe ff ff 	mov    rax,QWORD PTR [rbp-0x118]
    3c0e:	48 8d 50 22          	lea    rdx,[rax+0x22]
    3c12:	48 8b 85 e0 fe ff ff 	mov    rax,QWORD PTR [rbp-0x120]
    3c19:	48 89 10             	mov    QWORD PTR [rax],rdx
    3c1c:	48 8b 85 e0 fe ff ff 	mov    rax,QWORD PTR [rbp-0x120]
    3c23:	48 8b 95 18 ff ff ff 	mov    rdx,QWORD PTR [rbp-0xe8]
    3c2a:	48 89 50 58          	mov    QWORD PTR [rax+0x58],rdx
    3c2e:	48 8b 85 e0 fe ff ff 	mov    rax,QWORD PTR [rbp-0x120]
    3c35:	8b 40 30             	mov    eax,DWORD PTR [rax+0x30]
    3c38:	89 85 fc fe ff ff    	mov    DWORD PTR [rbp-0x104],eax
    3c3e:	48 8b 85 e0 fe ff ff 	mov    rax,QWORD PTR [rbp-0x120]
    3c45:	8b 40 30             	mov    eax,DWORD PTR [rax+0x30]
    3c48:	8d 50 d6             	lea    edx,[rax-0x2a]
    3c4b:	48 8b 85 e0 fe ff ff 	mov    rax,QWORD PTR [rbp-0x120]
    3c52:	89 50 34             	mov    DWORD PTR [rax+0x34],edx
    3c55:	48 8b 85 18 ff ff ff 	mov    rax,QWORD PTR [rbp-0xe8]
    3c5c:	0f b6 00             	movzx  eax,BYTE PTR [rax]
    3c5f:	3c 08                	cmp    al,0x8
    3c61:	0f 85 55 01 00 00    	jne    3dbc <ip4_icmp_decode+0x251>
    3c67:	8b 05 1b d4 00 00    	mov    eax,DWORD PTR [rip+0xd41b]        # 11088 <strict_nmap_host_alive_check>
    3c6d:	83 f8 01             	cmp    eax,0x1
    3c70:	0f 85 46 01 00 00    	jne    3dbc <ip4_icmp_decode+0x251>
    3c76:	48 8b 85 e0 fe ff ff 	mov    rax,QWORD PTR [rbp-0x120]
    3c7d:	48 8b 40 08          	mov    rax,QWORD PTR [rax+0x8]
    3c81:	48 89 c7             	mov    rdi,rax
    3c84:	e8 e3 3b 00 00       	call   786c <member_exists>
    3c89:	89 85 00 ff ff ff    	mov    DWORD PTR [rbp-0x100],eax
    3c8f:	83 bd 00 ff ff ff ff 	cmp    DWORD PTR [rbp-0x100],0xffffffff
    3c96:	0f 84 83 00 00 00    	je     3d1f <ip4_icmp_decode+0x1b4>
    3c9c:	8b 85 00 ff ff ff    	mov    eax,DWORD PTR [rbp-0x100]
    3ca2:	48 63 d0             	movsxd rdx,eax
    3ca5:	48 89 d0             	mov    rax,rdx
    3ca8:	48 c1 e0 02          	shl    rax,0x2
    3cac:	48 01 d0             	add    rax,rdx
    3caf:	48 c1 e0 03          	shl    rax,0x3
    3cb3:	48 01 d0             	add    rax,rdx
    3cb6:	48 c1 e0 04          	shl    rax,0x4
    3cba:	48 8d 15 5f f8 0e 00 	lea    rdx,[rip+0xef85f]        # f3520 <watchlist>
    3cc1:	48 01 d0             	add    rax,rdx
    3cc4:	48 89 85 28 ff ff ff 	mov    QWORD PTR [rbp-0xd8],rax
    3ccb:	48 8b 85 28 ff ff ff 	mov    rax,QWORD PTR [rbp-0xd8]
    3cd2:	8b 40 40             	mov    eax,DWORD PTR [rax+0x40]
    3cd5:	85 c0                	test   eax,eax
    3cd7:	0f 85 a8 02 00 00    	jne    3f85 <ip4_icmp_decode+0x41a>
    3cdd:	bf 00 00 00 00       	mov    edi,0x0
    3ce2:	e8 89 eb ff ff       	call   2870 <time@plt>
    3ce7:	48 89 c2             	mov    rdx,rax
    3cea:	48 8b 85 28 ff ff ff 	mov    rax,QWORD PTR [rbp-0xd8]
    3cf1:	48 89 50 28          	mov    QWORD PTR [rax+0x28],rdx
    3cf5:	48 8b 85 28 ff ff ff 	mov    rax,QWORD PTR [rbp-0xd8]
    3cfc:	c7 40 30 01 00 00 00 	mov    DWORD PTR [rax+0x30],0x1
    3d03:	48 8b 85 28 ff ff ff 	mov    rax,QWORD PTR [rbp-0xd8]
    3d0a:	8b 40 40             	mov    eax,DWORD PTR [rax+0x40]
    3d0d:	8d 50 01             	lea    edx,[rax+0x1]
    3d10:	48 8b 85 28 ff ff ff 	mov    rax,QWORD PTR [rbp-0xd8]
    3d17:	89 50 40             	mov    DWORD PTR [rax+0x40],edx
    3d1a:	e9 66 02 00 00       	jmp    3f85 <ip4_icmp_decode+0x41a>
    3d1f:	8b 05 f3 d2 00 00    	mov    eax,DWORD PTR [rip+0xd2f3]        # 11018 <watchlist_num>
    3d25:	83 c0 01             	add    eax,0x1
    3d28:	89 05 ea d2 00 00    	mov    DWORD PTR [rip+0xd2ea],eax        # 11018 <watchlist_num>
    3d2e:	8b 05 e4 d2 00 00    	mov    eax,DWORD PTR [rip+0xd2e4]        # 11018 <watchlist_num>
    3d34:	48 63 d0             	movsxd rdx,eax
    3d37:	48 89 d0             	mov    rax,rdx
    3d3a:	48 c1 e0 02          	shl    rax,0x2
    3d3e:	48 01 d0             	add    rax,rdx
    3d41:	48 c1 e0 03          	shl    rax,0x3
    3d45:	48 01 d0             	add    rax,rdx
    3d48:	48 c1 e0 04          	shl    rax,0x4
    3d4c:	48 8d 15 cd f7 0e 00 	lea    rdx,[rip+0xef7cd]        # f3520 <watchlist>
    3d53:	48 01 d0             	add    rax,rdx
    3d56:	48 89 85 20 ff ff ff 	mov    QWORD PTR [rbp-0xe0],rax
    3d5d:	48 8b 85 20 ff ff ff 	mov    rax,QWORD PTR [rbp-0xe0]
    3d64:	48 8d 50 08          	lea    rdx,[rax+0x8]
    3d68:	48 8b 85 08 ff ff ff 	mov    rax,QWORD PTR [rbp-0xf8]
    3d6f:	48 89 c6             	mov    rsi,rax
    3d72:	48 89 d7             	mov    rdi,rdx
    3d75:	e8 f6 e9 ff ff       	call   2770 <strcpy@plt>
    3d7a:	bf 00 00 00 00       	mov    edi,0x0
    3d7f:	e8 ec ea ff ff       	call   2870 <time@plt>
    3d84:	48 89 c2             	mov    rdx,rax
    3d87:	48 8b 85 20 ff ff ff 	mov    rax,QWORD PTR [rbp-0xe0]
    3d8e:	48 89 50 28          	mov    QWORD PTR [rax+0x28],rdx
    3d92:	48 8b 85 20 ff ff ff 	mov    rax,QWORD PTR [rbp-0xe0]
    3d99:	c7 40 30 01 00 00 00 	mov    DWORD PTR [rax+0x30],0x1
    3da0:	48 8b 85 20 ff ff ff 	mov    rax,QWORD PTR [rbp-0xe0]
    3da7:	8b 40 40             	mov    eax,DWORD PTR [rax+0x40]
    3daa:	8d 50 01             	lea    edx,[rax+0x1]
    3dad:	48 8b 85 20 ff ff ff 	mov    rax,QWORD PTR [rbp-0xe0]
    3db4:	89 50 40             	mov    DWORD PTR [rax+0x40],edx
    3db7:	e9 c9 01 00 00       	jmp    3f85 <ip4_icmp_decode+0x41a>
    3dbc:	48 8b 85 18 ff ff ff 	mov    rax,QWORD PTR [rbp-0xe8]
    3dc3:	0f b6 00             	movzx  eax,BYTE PTR [rax]
    3dc6:	3c 0d                	cmp    al,0xd
    3dc8:	0f 85 ba 01 00 00    	jne    3f88 <ip4_icmp_decode+0x41d>
    3dce:	8b 05 b0 d2 00 00    	mov    eax,DWORD PTR [rip+0xd2b0]        # 11084 <strict_icmp_timestamp_req>
    3dd4:	83 f8 01             	cmp    eax,0x1
    3dd7:	74 0f                	je     3de8 <ip4_icmp_decode+0x27d>
    3dd9:	8b 05 a9 d2 00 00    	mov    eax,DWORD PTR [rip+0xd2a9]        # 11088 <strict_nmap_host_alive_check>
    3ddf:	83 f8 01             	cmp    eax,0x1
    3de2:	0f 85 a0 01 00 00    	jne    3f88 <ip4_icmp_decode+0x41d>
    3de8:	8b 05 96 d2 00 00    	mov    eax,DWORD PTR [rip+0xd296]        # 11084 <strict_icmp_timestamp_req>
    3dee:	85 c0                	test   eax,eax
    3df0:	74 22                	je     3e14 <ip4_icmp_decode+0x2a9>
    3df2:	48 8b 95 10 ff ff ff 	mov    rdx,QWORD PTR [rbp-0xf0]
    3df9:	48 8b 85 08 ff ff ff 	mov    rax,QWORD PTR [rbp-0xf8]
    3e00:	48 89 c6             	mov    rsi,rax
    3e03:	48 8d 3d 96 85 00 00 	lea    rdi,[rip+0x8596]        # c3a0 <_IO_stdin_used+0x3a0>
    3e0a:	b8 00 00 00 00       	mov    eax,0x0
    3e0f:	e8 6c e6 ff ff       	call   2480 <printf@plt>
    3e14:	8b 05 6e d2 00 00    	mov    eax,DWORD PTR [rip+0xd26e]        # 11088 <strict_nmap_host_alive_check>
    3e1a:	85 c0                	test   eax,eax
    3e1c:	0f 84 66 01 00 00    	je     3f88 <ip4_icmp_decode+0x41d>
    3e22:	48 8b 85 08 ff ff ff 	mov    rax,QWORD PTR [rbp-0xf8]
    3e29:	48 89 c7             	mov    rdi,rax
    3e2c:	e8 3b 3a 00 00       	call   786c <member_exists>
    3e31:	89 85 04 ff ff ff    	mov    DWORD PTR [rbp-0xfc],eax
    3e37:	83 bd 04 ff ff ff ff 	cmp    DWORD PTR [rbp-0xfc],0xffffffff
    3e3e:	0f 84 44 01 00 00    	je     3f88 <ip4_icmp_decode+0x41d>
    3e44:	8b 85 04 ff ff ff    	mov    eax,DWORD PTR [rbp-0xfc]
    3e4a:	48 63 d0             	movsxd rdx,eax
    3e4d:	48 89 d0             	mov    rax,rdx
    3e50:	48 c1 e0 02          	shl    rax,0x2
    3e54:	48 01 d0             	add    rax,rdx
    3e57:	48 c1 e0 03          	shl    rax,0x3
    3e5b:	48 01 d0             	add    rax,rdx
    3e5e:	48 c1 e0 04          	shl    rax,0x4
    3e62:	48 8d 15 b7 f6 0e 00 	lea    rdx,[rip+0xef6b7]        # f3520 <watchlist>
    3e69:	48 01 d0             	add    rax,rdx
    3e6c:	48 89 85 30 ff ff ff 	mov    QWORD PTR [rbp-0xd0],rax
    3e73:	48 8b 85 30 ff ff ff 	mov    rax,QWORD PTR [rbp-0xd0]
    3e7a:	8b 40 40             	mov    eax,DWORD PTR [rax+0x40]
    3e7d:	83 f8 03             	cmp    eax,0x3
    3e80:	0f 85 05 01 00 00    	jne    3f8b <ip4_icmp_decode+0x420>
    3e86:	bf 00 00 00 00       	mov    edi,0x0
    3e8b:	e8 e0 e9 ff ff       	call   2870 <time@plt>
    3e90:	48 89 c2             	mov    rdx,rax
    3e93:	48 8b 85 30 ff ff ff 	mov    rax,QWORD PTR [rbp-0xd0]
    3e9a:	48 89 50 48          	mov    QWORD PTR [rax+0x48],rdx
    3e9e:	48 8b 85 30 ff ff ff 	mov    rax,QWORD PTR [rbp-0xd0]
    3ea5:	48 8b 50 48          	mov    rdx,QWORD PTR [rax+0x48]
    3ea9:	48 8b 85 30 ff ff ff 	mov    rax,QWORD PTR [rbp-0xd0]
    3eb0:	48 8b 48 28          	mov    rcx,QWORD PTR [rax+0x28]
    3eb4:	48 89 d0             	mov    rax,rdx
    3eb7:	48 29 c8             	sub    rax,rcx
    3eba:	48 3d e2 b4 04 00    	cmp    rax,0x4b4e2
    3ec0:	0f 87 c2 00 00 00    	ja     3f88 <ip4_icmp_decode+0x41d>
    3ec6:	48 8b 95 10 ff ff ff 	mov    rdx,QWORD PTR [rbp-0xf0]
    3ecd:	48 8b 85 08 ff ff ff 	mov    rax,QWORD PTR [rbp-0xf8]
    3ed4:	48 89 c6             	mov    rsi,rax
    3ed7:	48 8d 3d 0a 85 00 00 	lea    rdi,[rip+0x850a]        # c3e8 <_IO_stdin_used+0x3e8>
    3ede:	b8 00 00 00 00       	mov    eax,0x0
    3ee3:	e8 98 e5 ff ff       	call   2480 <printf@plt>
    3ee8:	48 8b 05 41 d1 00 00 	mov    rax,QWORD PTR [rip+0xd141]        # 11030 <def_log_file>
    3eef:	48 8d 35 5c 85 00 00 	lea    rsi,[rip+0x855c]        # c452 <_IO_stdin_used+0x452>
    3ef6:	48 89 c7             	mov    rdi,rax
    3ef9:	e8 72 e6 ff ff       	call   2570 <fopen@plt>
    3efe:	48 89 85 38 ff ff ff 	mov    QWORD PTR [rbp-0xc8],rax
    3f05:	b8 00 00 00 00       	mov    eax,0x0
    3f0a:	e8 30 f4 ff ff       	call   333f <get_formated_time>
    3f0f:	48 89 c6             	mov    rsi,rax
    3f12:	48 8b 8d 10 ff ff ff 	mov    rcx,QWORD PTR [rbp-0xf0]
    3f19:	48 8b 95 08 ff ff ff 	mov    rdx,QWORD PTR [rbp-0xf8]
    3f20:	48 8d 85 40 ff ff ff 	lea    rax,[rbp-0xc0]
    3f27:	49 89 f0             	mov    r8,rsi
    3f2a:	48 8d 35 27 85 00 00 	lea    rsi,[rip+0x8527]        # c458 <_IO_stdin_used+0x458>
    3f31:	48 89 c7             	mov    rdi,rax
    3f34:	b8 00 00 00 00       	mov    eax,0x0
    3f39:	e8 e2 e6 ff ff       	call   2620 <sprintf@plt>
    3f3e:	48 8b 95 38 ff ff ff 	mov    rdx,QWORD PTR [rbp-0xc8]
    3f45:	48 8d 85 40 ff ff ff 	lea    rax,[rbp-0xc0]
    3f4c:	48 89 d6             	mov    rsi,rdx
    3f4f:	48 89 c7             	mov    rdi,rax
    3f52:	e8 39 e7 ff ff       	call   2690 <fputs@plt>
    3f57:	48 8b 85 38 ff ff ff 	mov    rax,QWORD PTR [rbp-0xc8]
    3f5e:	48 89 c7             	mov    rdi,rax
    3f61:	e8 4a e8 ff ff       	call   27b0 <fclose@plt>
    3f66:	48 8b 85 30 ff ff ff 	mov    rax,QWORD PTR [rbp-0xd0]
    3f6d:	48 83 c0 28          	add    rax,0x28
    3f71:	ba 28 00 00 00       	mov    edx,0x28
    3f76:	be 00 00 00 00       	mov    esi,0x0
    3f7b:	48 89 c7             	mov    rdi,rax
    3f7e:	e8 0d e5 ff ff       	call   2490 <memset@plt>
    3f83:	eb 07                	jmp    3f8c <ip4_icmp_decode+0x421>
    3f85:	90                   	nop
    3f86:	eb 04                	jmp    3f8c <ip4_icmp_decode+0x421>
    3f88:	90                   	nop
    3f89:	eb 01                	jmp    3f8c <ip4_icmp_decode+0x421>
    3f8b:	90                   	nop
    3f8c:	48 8b 85 e0 fe ff ff 	mov    rax,QWORD PTR [rbp-0x120]
    3f93:	c7 40 2c 80 00 00 00 	mov    DWORD PTR [rax+0x2c],0x80
    3f9a:	48 8b 85 e0 fe ff ff 	mov    rax,QWORD PTR [rbp-0x120]
    3fa1:	48 89 c7             	mov    rdi,rax
    3fa4:	e8 ee 23 00 00       	call   6397 <rulemgr>
    3fa9:	0f b6 05 b4 5f 10 00 	movzx  eax,BYTE PTR [rip+0x105fb4]        # 109f64 <packet_print>
    3fb0:	84 c0                	test   al,al
    3fb2:	0f 84 e0 03 00 00    	je     4398 <ip4_icmp_decode+0x82d>
    3fb8:	48 8d 35 41 83 00 00 	lea    rsi,[rip+0x8341]        # c300 <_IO_stdin_used+0x300>
    3fbf:	48 8d 3d 40 83 00 00 	lea    rdi,[rip+0x8340]        # c306 <_IO_stdin_used+0x306>
    3fc6:	b8 00 00 00 00       	mov    eax,0x0
    3fcb:	e8 b0 e4 ff ff       	call   2480 <printf@plt>
    3fd0:	48 8b 95 10 ff ff ff 	mov    rdx,QWORD PTR [rbp-0xf0]
    3fd7:	48 8b 85 08 ff ff ff 	mov    rax,QWORD PTR [rbp-0xf8]
    3fde:	48 89 c6             	mov    rsi,rax
    3fe1:	48 8d 3d e0 84 00 00 	lea    rdi,[rip+0x84e0]        # c4c8 <_IO_stdin_used+0x4c8>
    3fe8:	b8 00 00 00 00       	mov    eax,0x0
    3fed:	e8 8e e4 ff ff       	call   2480 <printf@plt>
    3ff2:	48 8d 3d de 84 00 00 	lea    rdi,[rip+0x84de]        # c4d7 <_IO_stdin_used+0x4d7>
    3ff9:	b8 00 00 00 00       	mov    eax,0x0
    3ffe:	e8 7d e4 ff ff       	call   2480 <printf@plt>
    4003:	48 8b 85 18 ff ff ff 	mov    rax,QWORD PTR [rbp-0xe8]
    400a:	0f b6 00             	movzx  eax,BYTE PTR [rax]
    400d:	0f b6 c0             	movzx  eax,al
    4010:	83 f8 0e             	cmp    eax,0xe
    4013:	0f 87 46 03 00 00    	ja     435f <ip4_icmp_decode+0x7f4>
    4019:	89 c0                	mov    eax,eax
    401b:	48 8d 14 85 00 00 00 	lea    rdx,[rax*4+0x0]
    4022:	00 
    4023:	48 8d 05 b6 88 00 00 	lea    rax,[rip+0x88b6]        # c8e0 <_IO_stdin_used+0x8e0>
    402a:	8b 04 02             	mov    eax,DWORD PTR [rdx+rax*1]
    402d:	48 98                	cdqe   
    402f:	48 8d 15 aa 88 00 00 	lea    rdx,[rip+0x88aa]        # c8e0 <_IO_stdin_used+0x8e0>
    4036:	48 01 d0             	add    rax,rdx
    4039:	3e ff e0             	notrack jmp rax
    403c:	48 8d 3d 9b 84 00 00 	lea    rdi,[rip+0x849b]        # c4de <_IO_stdin_used+0x4de>
    4043:	e8 98 e4 ff ff       	call   24e0 <puts@plt>
    4048:	e9 33 03 00 00       	jmp    4380 <ip4_icmp_decode+0x815>
    404d:	48 8d 3d 96 84 00 00 	lea    rdi,[rip+0x8496]        # c4ea <_IO_stdin_used+0x4ea>
    4054:	b8 00 00 00 00       	mov    eax,0x0
    4059:	e8 22 e4 ff ff       	call   2480 <printf@plt>
    405e:	48 8b 85 18 ff ff ff 	mov    rax,QWORD PTR [rbp-0xe8]
    4065:	0f b6 40 01          	movzx  eax,BYTE PTR [rax+0x1]
    4069:	0f b6 c0             	movzx  eax,al
    406c:	83 f8 0f             	cmp    eax,0xf
    406f:	0f 87 1e 01 00 00    	ja     4193 <ip4_icmp_decode+0x628>
    4075:	89 c0                	mov    eax,eax
    4077:	48 8d 14 85 00 00 00 	lea    rdx,[rax*4+0x0]
    407e:	00 
    407f:	48 8d 05 96 88 00 00 	lea    rax,[rip+0x8896]        # c91c <_IO_stdin_used+0x91c>
    4086:	8b 04 02             	mov    eax,DWORD PTR [rdx+rax*1]
    4089:	48 98                	cdqe   
    408b:	48 8d 15 8a 88 00 00 	lea    rdx,[rip+0x888a]        # c91c <_IO_stdin_used+0x91c>
    4092:	48 01 d0             	add    rax,rdx
    4095:	3e ff e0             	notrack jmp rax
    4098:	48 8d 3d 65 84 00 00 	lea    rdi,[rip+0x8465]        # c504 <_IO_stdin_used+0x504>
    409f:	e8 3c e4 ff ff       	call   24e0 <puts@plt>
    40a4:	e9 0c 01 00 00       	jmp    41b5 <ip4_icmp_decode+0x64a>
    40a9:	48 8d 3d 6b 84 00 00 	lea    rdi,[rip+0x846b]        # c51b <_IO_stdin_used+0x51b>
    40b0:	e8 2b e4 ff ff       	call   24e0 <puts@plt>
    40b5:	e9 fb 00 00 00       	jmp    41b5 <ip4_icmp_decode+0x64a>
    40ba:	48 8d 3d 6e 84 00 00 	lea    rdi,[rip+0x846e]        # c52f <_IO_stdin_used+0x52f>
    40c1:	e8 1a e4 ff ff       	call   24e0 <puts@plt>
    40c6:	e9 ea 00 00 00       	jmp    41b5 <ip4_icmp_decode+0x64a>
    40cb:	48 8d 3d 75 84 00 00 	lea    rdi,[rip+0x8475]        # c547 <_IO_stdin_used+0x547>
    40d2:	e8 09 e4 ff ff       	call   24e0 <puts@plt>
    40d7:	e9 d9 00 00 00       	jmp    41b5 <ip4_icmp_decode+0x64a>
    40dc:	48 8d 3d 78 84 00 00 	lea    rdi,[rip+0x8478]        # c55b <_IO_stdin_used+0x55b>
    40e3:	e8 f8 e3 ff ff       	call   24e0 <puts@plt>
    40e8:	e9 c8 00 00 00       	jmp    41b5 <ip4_icmp_decode+0x64a>
    40ed:	48 8d 3d 7f 84 00 00 	lea    rdi,[rip+0x847f]        # c573 <_IO_stdin_used+0x573>
    40f4:	e8 e7 e3 ff ff       	call   24e0 <puts@plt>
    40f9:	e9 b7 00 00 00       	jmp    41b5 <ip4_icmp_decode+0x64a>
    40fe:	48 8d 3d 8b 84 00 00 	lea    rdi,[rip+0x848b]        # c590 <_IO_stdin_used+0x590>
    4105:	e8 d6 e3 ff ff       	call   24e0 <puts@plt>
    410a:	e9 a6 00 00 00       	jmp    41b5 <ip4_icmp_decode+0x64a>
    410f:	48 8d 3d a2 84 00 00 	lea    rdi,[rip+0x84a2]        # c5b8 <_IO_stdin_used+0x5b8>
    4116:	e8 c5 e3 ff ff       	call   24e0 <puts@plt>
    411b:	e9 95 00 00 00       	jmp    41b5 <ip4_icmp_decode+0x64a>
    4120:	48 8d 3d b1 84 00 00 	lea    rdi,[rip+0x84b1]        # c5d8 <_IO_stdin_used+0x5d8>
    4127:	e8 b4 e3 ff ff       	call   24e0 <puts@plt>
    412c:	e9 84 00 00 00       	jmp    41b5 <ip4_icmp_decode+0x64a>
    4131:	48 8d 3d b8 84 00 00 	lea    rdi,[rip+0x84b8]        # c5f0 <_IO_stdin_used+0x5f0>
    4138:	e8 a3 e3 ff ff       	call   24e0 <puts@plt>
    413d:	eb 76                	jmp    41b5 <ip4_icmp_decode+0x64a>
    413f:	48 8d 3d d2 84 00 00 	lea    rdi,[rip+0x84d2]        # c618 <_IO_stdin_used+0x618>
    4146:	e8 95 e3 ff ff       	call   24e0 <puts@plt>
    414b:	eb 68                	jmp    41b5 <ip4_icmp_decode+0x64a>
    414d:	48 8d 3d ec 84 00 00 	lea    rdi,[rip+0x84ec]        # c640 <_IO_stdin_used+0x640>
    4154:	e8 87 e3 ff ff       	call   24e0 <puts@plt>
    4159:	eb 5a                	jmp    41b5 <ip4_icmp_decode+0x64a>
    415b:	48 8d 3d fd 84 00 00 	lea    rdi,[rip+0x84fd]        # c65f <_IO_stdin_used+0x65f>
    4162:	e8 79 e3 ff ff       	call   24e0 <puts@plt>
    4167:	eb 4c                	jmp    41b5 <ip4_icmp_decode+0x64a>
    4169:	48 8d 3d 10 85 00 00 	lea    rdi,[rip+0x8510]        # c680 <_IO_stdin_used+0x680>
    4170:	e8 6b e3 ff ff       	call   24e0 <puts@plt>
    4175:	eb 3e                	jmp    41b5 <ip4_icmp_decode+0x64a>
    4177:	48 8d 3d 2f 85 00 00 	lea    rdi,[rip+0x852f]        # c6ad <_IO_stdin_used+0x6ad>
    417e:	e8 5d e3 ff ff       	call   24e0 <puts@plt>
    4183:	eb 30                	jmp    41b5 <ip4_icmp_decode+0x64a>
    4185:	48 8d 3d 44 85 00 00 	lea    rdi,[rip+0x8544]        # c6d0 <_IO_stdin_used+0x6d0>
    418c:	e8 4f e3 ff ff       	call   24e0 <puts@plt>
    4191:	eb 22                	jmp    41b5 <ip4_icmp_decode+0x64a>
    4193:	48 8b 85 18 ff ff ff 	mov    rax,QWORD PTR [rbp-0xe8]
    419a:	0f b6 40 01          	movzx  eax,BYTE PTR [rax+0x1]
    419e:	0f b6 c0             	movzx  eax,al
    41a1:	89 c6                	mov    esi,eax
    41a3:	48 8d 3d 45 85 00 00 	lea    rdi,[rip+0x8545]        # c6ef <_IO_stdin_used+0x6ef>
    41aa:	b8 00 00 00 00       	mov    eax,0x0
    41af:	e8 cc e2 ff ff       	call   2480 <printf@plt>
    41b4:	90                   	nop
    41b5:	e9 c6 01 00 00       	jmp    4380 <ip4_icmp_decode+0x815>
    41ba:	48 8d 3d 47 85 00 00 	lea    rdi,[rip+0x8547]        # c708 <_IO_stdin_used+0x708>
    41c1:	e8 1a e3 ff ff       	call   24e0 <puts@plt>
    41c6:	e9 b5 01 00 00       	jmp    4380 <ip4_icmp_decode+0x815>
    41cb:	48 8d 3d 55 85 00 00 	lea    rdi,[rip+0x8555]        # c727 <_IO_stdin_used+0x727>
    41d2:	b8 00 00 00 00       	mov    eax,0x0
    41d7:	e8 a4 e2 ff ff       	call   2480 <printf@plt>
    41dc:	48 8b 85 18 ff ff ff 	mov    rax,QWORD PTR [rbp-0xe8]
    41e3:	0f b6 40 01          	movzx  eax,BYTE PTR [rax+0x1]
    41e7:	0f b6 c0             	movzx  eax,al
    41ea:	83 f8 03             	cmp    eax,0x3
    41ed:	74 44                	je     4233 <ip4_icmp_decode+0x6c8>
    41ef:	83 f8 03             	cmp    eax,0x3
    41f2:	7f 4d                	jg     4241 <ip4_icmp_decode+0x6d6>
    41f4:	83 f8 02             	cmp    eax,0x2
    41f7:	74 2c                	je     4225 <ip4_icmp_decode+0x6ba>
    41f9:	83 f8 02             	cmp    eax,0x2
    41fc:	7f 43                	jg     4241 <ip4_icmp_decode+0x6d6>
    41fe:	85 c0                	test   eax,eax
    4200:	74 07                	je     4209 <ip4_icmp_decode+0x69e>
    4202:	83 f8 01             	cmp    eax,0x1
    4205:	74 10                	je     4217 <ip4_icmp_decode+0x6ac>
    4207:	eb 38                	jmp    4241 <ip4_icmp_decode+0x6d6>
    4209:	48 8d 3d 23 85 00 00 	lea    rdi,[rip+0x8523]        # c733 <_IO_stdin_used+0x733>
    4210:	e8 cb e2 ff ff       	call   24e0 <puts@plt>
    4215:	eb 4c                	jmp    4263 <ip4_icmp_decode+0x6f8>
    4217:	48 8d 3d 2d 85 00 00 	lea    rdi,[rip+0x852d]        # c74b <_IO_stdin_used+0x74b>
    421e:	e8 bd e2 ff ff       	call   24e0 <puts@plt>
    4223:	eb 3e                	jmp    4263 <ip4_icmp_decode+0x6f8>
    4225:	48 8d 3d 34 85 00 00 	lea    rdi,[rip+0x8534]        # c760 <_IO_stdin_used+0x760>
    422c:	e8 af e2 ff ff       	call   24e0 <puts@plt>
    4231:	eb 30                	jmp    4263 <ip4_icmp_decode+0x6f8>
    4233:	48 8d 3d 46 85 00 00 	lea    rdi,[rip+0x8546]        # c780 <_IO_stdin_used+0x780>
    423a:	e8 a1 e2 ff ff       	call   24e0 <puts@plt>
    423f:	eb 22                	jmp    4263 <ip4_icmp_decode+0x6f8>
    4241:	48 8b 85 18 ff ff ff 	mov    rax,QWORD PTR [rbp-0xe8]
    4248:	0f b6 40 01          	movzx  eax,BYTE PTR [rax+0x1]
    424c:	0f b6 c0             	movzx  eax,al
    424f:	89 c6                	mov    esi,eax
    4251:	48 8d 3d 97 84 00 00 	lea    rdi,[rip+0x8497]        # c6ef <_IO_stdin_used+0x6ef>
    4258:	b8 00 00 00 00       	mov    eax,0x0
    425d:	e8 1e e2 ff ff       	call   2480 <printf@plt>
    4262:	90                   	nop
    4263:	e9 18 01 00 00       	jmp    4380 <ip4_icmp_decode+0x815>
    4268:	48 8d 3d 2e 85 00 00 	lea    rdi,[rip+0x852e]        # c79d <_IO_stdin_used+0x79d>
    426f:	e8 6c e2 ff ff       	call   24e0 <puts@plt>
    4274:	e9 07 01 00 00       	jmp    4380 <ip4_icmp_decode+0x815>
    4279:	48 8b 85 18 ff ff ff 	mov    rax,QWORD PTR [rbp-0xe8]
    4280:	0f b6 40 01          	movzx  eax,BYTE PTR [rax+0x1]
    4284:	84 c0                	test   al,al
    4286:	75 16                	jne    429e <ip4_icmp_decode+0x733>
    4288:	48 8d 3d 21 85 00 00 	lea    rdi,[rip+0x8521]        # c7b0 <_IO_stdin_used+0x7b0>
    428f:	b8 00 00 00 00       	mov    eax,0x0
    4294:	e8 e7 e1 ff ff       	call   2480 <printf@plt>
    4299:	e9 e2 00 00 00       	jmp    4380 <ip4_icmp_decode+0x815>
    429e:	48 8b 85 18 ff ff ff 	mov    rax,QWORD PTR [rbp-0xe8]
    42a5:	0f b6 40 01          	movzx  eax,BYTE PTR [rax+0x1]
    42a9:	0f b6 c0             	movzx  eax,al
    42ac:	89 c6                	mov    esi,eax
    42ae:	48 8d 3d 3b 85 00 00 	lea    rdi,[rip+0x853b]        # c7f0 <_IO_stdin_used+0x7f0>
    42b5:	b8 00 00 00 00       	mov    eax,0x0
    42ba:	e8 c1 e1 ff ff       	call   2480 <printf@plt>
    42bf:	e9 bc 00 00 00       	jmp    4380 <ip4_icmp_decode+0x815>
    42c4:	48 8d 3d 52 85 00 00 	lea    rdi,[rip+0x8552]        # c81d <_IO_stdin_used+0x81d>
    42cb:	e8 10 e2 ff ff       	call   24e0 <puts@plt>
    42d0:	e9 ab 00 00 00       	jmp    4380 <ip4_icmp_decode+0x815>
    42d5:	48 8d 3d 58 85 00 00 	lea    rdi,[rip+0x8558]        # c834 <_IO_stdin_used+0x834>
    42dc:	b8 00 00 00 00       	mov    eax,0x0
    42e1:	e8 9a e1 ff ff       	call   2480 <printf@plt>
    42e6:	48 8b 85 18 ff ff ff 	mov    rax,QWORD PTR [rbp-0xe8]
    42ed:	0f b6 40 01          	movzx  eax,BYTE PTR [rax+0x1]
    42f1:	84 c0                	test   al,al
    42f3:	75 0e                	jne    4303 <ip4_icmp_decode+0x798>
    42f5:	48 8d 3d 4f 85 00 00 	lea    rdi,[rip+0x854f]        # c84b <_IO_stdin_used+0x84b>
    42fc:	e8 df e1 ff ff       	call   24e0 <puts@plt>
    4301:	eb 7d                	jmp    4380 <ip4_icmp_decode+0x815>
    4303:	48 8b 85 18 ff ff ff 	mov    rax,QWORD PTR [rbp-0xe8]
    430a:	0f b6 40 01          	movzx  eax,BYTE PTR [rax+0x1]
    430e:	3c 01                	cmp    al,0x1
    4310:	75 0e                	jne    4320 <ip4_icmp_decode+0x7b5>
    4312:	48 8d 3d 4f 85 00 00 	lea    rdi,[rip+0x854f]        # c868 <_IO_stdin_used+0x868>
    4319:	e8 c2 e1 ff ff       	call   24e0 <puts@plt>
    431e:	eb 60                	jmp    4380 <ip4_icmp_decode+0x815>
    4320:	48 8b 85 18 ff ff ff 	mov    rax,QWORD PTR [rbp-0xe8]
    4327:	0f b6 40 01          	movzx  eax,BYTE PTR [rax+0x1]
    432b:	0f b6 c0             	movzx  eax,al
    432e:	89 c6                	mov    esi,eax
    4330:	48 8d 3d 58 85 00 00 	lea    rdi,[rip+0x8558]        # c88f <_IO_stdin_used+0x88f>
    4337:	b8 00 00 00 00       	mov    eax,0x0
    433c:	e8 3f e1 ff ff       	call   2480 <printf@plt>
    4341:	eb 3d                	jmp    4380 <ip4_icmp_decode+0x815>
    4343:	48 8d 3d 5b 85 00 00 	lea    rdi,[rip+0x855b]        # c8a5 <_IO_stdin_used+0x8a5>
    434a:	e8 91 e1 ff ff       	call   24e0 <puts@plt>
    434f:	eb 2f                	jmp    4380 <ip4_icmp_decode+0x815>
    4351:	48 8d 3d 60 85 00 00 	lea    rdi,[rip+0x8560]        # c8b8 <_IO_stdin_used+0x8b8>
    4358:	e8 83 e1 ff ff       	call   24e0 <puts@plt>
    435d:	eb 21                	jmp    4380 <ip4_icmp_decode+0x815>
    435f:	48 8b 85 18 ff ff ff 	mov    rax,QWORD PTR [rbp-0xe8]
    4366:	0f b6 00             	movzx  eax,BYTE PTR [rax]
    4369:	0f b6 c0             	movzx  eax,al
    436c:	89 c6                	mov    esi,eax
    436e:	48 8d 3d 54 85 00 00 	lea    rdi,[rip+0x8554]        # c8c9 <_IO_stdin_used+0x8c9>
    4375:	b8 00 00 00 00       	mov    eax,0x0
    437a:	e8 01 e1 ff ff       	call   2480 <printf@plt>
    437f:	90                   	nop
    4380:	48 8d 35 0e 80 00 00 	lea    rsi,[rip+0x800e]        # c395 <_IO_stdin_used+0x395>
    4387:	48 8d 3d 78 7f 00 00 	lea    rdi,[rip+0x7f78]        # c306 <_IO_stdin_used+0x306>
    438e:	b8 00 00 00 00       	mov    eax,0x0
    4393:	e8 e8 e0 ff ff       	call   2480 <printf@plt>
    4398:	90                   	nop
    4399:	48 8b 45 f8          	mov    rax,QWORD PTR [rbp-0x8]
    439d:	64 48 2b 04 25 28 00 	sub    rax,QWORD PTR fs:0x28
    43a4:	00 00 
    43a6:	74 05                	je     43ad <ip4_icmp_decode+0x842>
    43a8:	e8 93 e3 ff ff       	call   2740 <__stack_chk_fail@plt>
    43ad:	c9                   	leave  
    43ae:	c3                   	ret    

00000000000043af <ip4_tcp_decode>:
    43af:	f3 0f 1e fa          	endbr64 
    43b3:	55                   	push   rbp
    43b4:	48 89 e5             	mov    rbp,rsp
    43b7:	53                   	push   rbx
    43b8:	48 81 ec 88 00 00 00 	sub    rsp,0x88
    43bf:	48 89 7d 88          	mov    QWORD PTR [rbp-0x78],rdi
    43c3:	48 89 75 80          	mov    QWORD PTR [rbp-0x80],rsi
    43c7:	48 89 95 78 ff ff ff 	mov    QWORD PTR [rbp-0x88],rdx
    43ce:	48 c7 45 b8 00 00 00 	mov    QWORD PTR [rbp-0x48],0x0
    43d5:	00 
    43d6:	48 8b 45 b8          	mov    rax,QWORD PTR [rbp-0x48]
    43da:	c7 00 00 00 00 00    	mov    DWORD PTR [rax],0x0
    43e0:	48 8b 45 88          	mov    rax,QWORD PTR [rbp-0x78]
    43e4:	48 83 c0 22          	add    rax,0x22
    43e8:	48 89 45 c0          	mov    QWORD PTR [rbp-0x40],rax
    43ec:	48 8b 45 c0          	mov    rax,QWORD PTR [rbp-0x40]
    43f0:	0f b6 40 0c          	movzx  eax,BYTE PTR [rax+0xc]
    43f4:	c0 e8 04             	shr    al,0x4
    43f7:	0f b6 c0             	movzx  eax,al
    43fa:	c1 e0 02             	shl    eax,0x2
    43fd:	48 98                	cdqe   
    43ff:	48 8d 50 22          	lea    rdx,[rax+0x22]
    4403:	48 8b 45 88          	mov    rax,QWORD PTR [rbp-0x78]
    4407:	48 01 c2             	add    rdx,rax
    440a:	48 8b 45 80          	mov    rax,QWORD PTR [rbp-0x80]
    440e:	48 89 10             	mov    QWORD PTR [rax],rdx
    4411:	48 8b 45 80          	mov    rax,QWORD PTR [rbp-0x80]
    4415:	8b 40 30             	mov    eax,DWORD PTR [rax+0x30]
    4418:	89 c2                	mov    edx,eax
    441a:	48 8b 45 c0          	mov    rax,QWORD PTR [rbp-0x40]
    441e:	0f b6 40 0c          	movzx  eax,BYTE PTR [rax+0xc]
    4422:	c0 e8 04             	shr    al,0x4
    4425:	0f b6 c0             	movzx  eax,al
    4428:	c1 e0 02             	shl    eax,0x2
    442b:	89 c1                	mov    ecx,eax
    442d:	89 d0                	mov    eax,edx
    442f:	29 c8                	sub    eax,ecx
    4431:	83 e8 22             	sub    eax,0x22
    4434:	89 c2                	mov    edx,eax
    4436:	48 8b 45 80          	mov    rax,QWORD PTR [rbp-0x80]
    443a:	89 50 30             	mov    DWORD PTR [rax+0x30],edx
    443d:	48 8b 45 80          	mov    rax,QWORD PTR [rbp-0x80]
    4441:	48 8b 40 08          	mov    rax,QWORD PTR [rax+0x8]
    4445:	48 89 45 c8          	mov    QWORD PTR [rbp-0x38],rax
    4449:	48 8b 45 80          	mov    rax,QWORD PTR [rbp-0x80]
    444d:	48 8b 40 10          	mov    rax,QWORD PTR [rax+0x10]
    4451:	48 89 45 d0          	mov    QWORD PTR [rbp-0x30],rax
    4455:	48 8b 45 c8          	mov    rax,QWORD PTR [rbp-0x38]
    4459:	ba 5c 00 00 00       	mov    edx,0x5c
    445e:	be 01 00 00 00       	mov    esi,0x1
    4463:	48 89 c7             	mov    rdi,rax
    4466:	e8 2b 0a 00 00       	call   4e96 <add_ip_addr_or_inc_counter>
    446b:	48 8b 45 d0          	mov    rax,QWORD PTR [rbp-0x30]
    446f:	ba 5c 00 00 00       	mov    edx,0x5c
    4474:	be 00 00 00 00       	mov    esi,0x0
    4479:	48 89 c7             	mov    rdi,rax
    447c:	e8 15 0a 00 00       	call   4e96 <add_ip_addr_or_inc_counter>
    4481:	c7 45 9c 00 00 00 00 	mov    DWORD PTR [rbp-0x64],0x0
    4488:	c6 45 97 00          	mov    BYTE PTR [rbp-0x69],0x0
    448c:	c6 45 98 00          	mov    BYTE PTR [rbp-0x68],0x0
    4490:	c6 45 99 00          	mov    BYTE PTR [rbp-0x67],0x0
    4494:	c6 45 9a 00          	mov    BYTE PTR [rbp-0x66],0x0
    4498:	c6 45 9b 00          	mov    BYTE PTR [rbp-0x65],0x0
    449c:	48 8b 45 80          	mov    rax,QWORD PTR [rbp-0x80]
    44a0:	48 83 c0 60          	add    rax,0x60
    44a4:	ba 08 00 00 00       	mov    edx,0x8
    44a9:	be 00 00 00 00       	mov    esi,0x0
    44ae:	48 89 c7             	mov    rdi,rax
    44b1:	e8 da df ff ff       	call   2490 <memset@plt>
    44b6:	48 8b 45 c0          	mov    rax,QWORD PTR [rbp-0x40]
    44ba:	0f b7 40 02          	movzx  eax,WORD PTR [rax+0x2]
    44be:	0f b7 c0             	movzx  eax,ax
    44c1:	89 c7                	mov    edi,eax
    44c3:	e8 68 e1 ff ff       	call   2630 <ntohs@plt>
    44c8:	0f b7 c0             	movzx  eax,ax
    44cb:	89 45 a0             	mov    DWORD PTR [rbp-0x60],eax
    44ce:	48 8b 45 c0          	mov    rax,QWORD PTR [rbp-0x40]
    44d2:	0f b7 00             	movzx  eax,WORD PTR [rax]
    44d5:	0f b7 c0             	movzx  eax,ax
    44d8:	89 c7                	mov    edi,eax
    44da:	e8 51 e1 ff ff       	call   2630 <ntohs@plt>
    44df:	0f b7 c0             	movzx  eax,ax
    44e2:	89 45 a4             	mov    DWORD PTR [rbp-0x5c],eax
    44e5:	48 8b 45 c0          	mov    rax,QWORD PTR [rbp-0x40]
    44e9:	0f b7 40 02          	movzx  eax,WORD PTR [rax+0x2]
    44ed:	0f b7 c0             	movzx  eax,ax
    44f0:	89 c7                	mov    edi,eax
    44f2:	e8 39 e1 ff ff       	call   2630 <ntohs@plt>
    44f7:	0f b7 d0             	movzx  edx,ax
    44fa:	48 8b 45 80          	mov    rax,QWORD PTR [rbp-0x80]
    44fe:	89 50 28             	mov    DWORD PTR [rax+0x28],edx
    4501:	48 8b 45 80          	mov    rax,QWORD PTR [rbp-0x80]
    4505:	8b 55 a4             	mov    edx,DWORD PTR [rbp-0x5c]
    4508:	89 50 24             	mov    DWORD PTR [rax+0x24],edx
    450b:	0f b6 05 52 5a 10 00 	movzx  eax,BYTE PTR [rip+0x105a52]        # 109f64 <packet_print>
    4512:	84 c0                	test   al,al
    4514:	74 4e                	je     4564 <ip4_tcp_decode+0x1b5>
    4516:	48 8d 35 43 84 00 00 	lea    rsi,[rip+0x8443]        # c960 <_IO_stdin_used+0x960>
    451d:	48 8d 3d 42 84 00 00 	lea    rdi,[rip+0x8442]        # c966 <_IO_stdin_used+0x966>
    4524:	b8 00 00 00 00       	mov    eax,0x0
    4529:	e8 52 df ff ff       	call   2480 <printf@plt>
    452e:	8b 75 a0             	mov    esi,DWORD PTR [rbp-0x60]
    4531:	48 8b 4d d0          	mov    rcx,QWORD PTR [rbp-0x30]
    4535:	8b 55 a4             	mov    edx,DWORD PTR [rbp-0x5c]
    4538:	48 8b 45 c8          	mov    rax,QWORD PTR [rbp-0x38]
    453c:	41 89 f0             	mov    r8d,esi
    453f:	48 89 c6             	mov    rsi,rax
    4542:	48 8d 3d 20 84 00 00 	lea    rdi,[rip+0x8420]        # c969 <_IO_stdin_used+0x969>
    4549:	b8 00 00 00 00       	mov    eax,0x0
    454e:	e8 2d df ff ff       	call   2480 <printf@plt>
    4553:	48 8d 3d 24 84 00 00 	lea    rdi,[rip+0x8424]        # c97e <_IO_stdin_used+0x97e>
    455a:	b8 00 00 00 00       	mov    eax,0x0
    455f:	e8 1c df ff ff       	call   2480 <printf@plt>
    4564:	48 8b 45 c0          	mov    rax,QWORD PTR [rbp-0x40]
    4568:	0f b6 40 0d          	movzx  eax,BYTE PTR [rax+0xd]
    456c:	c0 e8 04             	shr    al,0x4
    456f:	83 e0 01             	and    eax,0x1
    4572:	0f b6 c0             	movzx  eax,al
    4575:	89 c7                	mov    edi,eax
    4577:	e8 b4 e0 ff ff       	call   2630 <ntohs@plt>
    457c:	66 85 c0             	test   ax,ax
    457f:	74 43                	je     45c4 <ip4_tcp_decode+0x215>
    4581:	0f b6 05 dc 59 10 00 	movzx  eax,BYTE PTR [rip+0x1059dc]        # 109f64 <packet_print>
    4588:	84 c0                	test   al,al
    458a:	74 18                	je     45a4 <ip4_tcp_decode+0x1f5>
    458c:	48 8d 35 f2 83 00 00 	lea    rsi,[rip+0x83f2]        # c985 <_IO_stdin_used+0x985>
    4593:	48 8d 3d f1 83 00 00 	lea    rdi,[rip+0x83f1]        # c98b <_IO_stdin_used+0x98b>
    459a:	b8 00 00 00 00       	mov    eax,0x0
    459f:	e8 dc de ff ff       	call   2480 <printf@plt>
    45a4:	c6 45 98 01          	mov    BYTE PTR [rbp-0x68],0x1
    45a8:	48 8b 45 80          	mov    rax,QWORD PTR [rbp-0x80]
    45ac:	48 8d 58 60          	lea    rbx,[rax+0x60]
    45b0:	48 89 df             	mov    rdi,rbx
    45b3:	e8 48 e0 ff ff       	call   2600 <strlen@plt>
    45b8:	48 01 d8             	add    rax,rbx
    45bb:	66 c7 00 41 00       	mov    WORD PTR [rax],0x41
    45c0:	83 45 9c 01          	add    DWORD PTR [rbp-0x64],0x1
    45c4:	48 8b 45 c0          	mov    rax,QWORD PTR [rbp-0x40]
    45c8:	0f b6 40 0d          	movzx  eax,BYTE PTR [rax+0xd]
    45cc:	83 e0 01             	and    eax,0x1
    45cf:	0f b6 c0             	movzx  eax,al
    45d2:	89 c7                	mov    edi,eax
    45d4:	e8 57 e0 ff ff       	call   2630 <ntohs@plt>
    45d9:	66 85 c0             	test   ax,ax
    45dc:	74 43                	je     4621 <ip4_tcp_decode+0x272>
    45de:	0f b6 05 7f 59 10 00 	movzx  eax,BYTE PTR [rip+0x10597f]        # 109f64 <packet_print>
    45e5:	84 c0                	test   al,al
    45e7:	74 18                	je     4601 <ip4_tcp_decode+0x252>
    45e9:	48 8d 35 a3 83 00 00 	lea    rsi,[rip+0x83a3]        # c993 <_IO_stdin_used+0x993>
    45f0:	48 8d 3d a2 83 00 00 	lea    rdi,[rip+0x83a2]        # c999 <_IO_stdin_used+0x999>
    45f7:	b8 00 00 00 00       	mov    eax,0x0
    45fc:	e8 7f de ff ff       	call   2480 <printf@plt>
    4601:	c6 45 9a 01          	mov    BYTE PTR [rbp-0x66],0x1
    4605:	48 8b 45 80          	mov    rax,QWORD PTR [rbp-0x80]
    4609:	48 8d 58 60          	lea    rbx,[rax+0x60]
    460d:	48 89 df             	mov    rdi,rbx
    4610:	e8 eb df ff ff       	call   2600 <strlen@plt>
    4615:	48 01 d8             	add    rax,rbx
    4618:	66 c7 00 46 00       	mov    WORD PTR [rax],0x46
    461d:	83 45 9c 01          	add    DWORD PTR [rbp-0x64],0x1
    4621:	48 8b 45 c0          	mov    rax,QWORD PTR [rbp-0x40]
    4625:	0f b6 40 0d          	movzx  eax,BYTE PTR [rax+0xd]
    4629:	c0 e8 03             	shr    al,0x3
    462c:	83 e0 01             	and    eax,0x1
    462f:	0f b6 c0             	movzx  eax,al
    4632:	89 c7                	mov    edi,eax
    4634:	e8 f7 df ff ff       	call   2630 <ntohs@plt>
    4639:	66 85 c0             	test   ax,ax
    463c:	74 43                	je     4681 <ip4_tcp_decode+0x2d2>
    463e:	0f b6 05 1f 59 10 00 	movzx  eax,BYTE PTR [rip+0x10591f]        # 109f64 <packet_print>
    4645:	84 c0                	test   al,al
    4647:	74 18                	je     4661 <ip4_tcp_decode+0x2b2>
    4649:	48 8d 35 51 83 00 00 	lea    rsi,[rip+0x8351]        # c9a1 <_IO_stdin_used+0x9a1>
    4650:	48 8d 3d 50 83 00 00 	lea    rdi,[rip+0x8350]        # c9a7 <_IO_stdin_used+0x9a7>
    4657:	b8 00 00 00 00       	mov    eax,0x0
    465c:	e8 1f de ff ff       	call   2480 <printf@plt>
    4661:	83 45 9c 01          	add    DWORD PTR [rbp-0x64],0x1
    4665:	48 8b 45 80          	mov    rax,QWORD PTR [rbp-0x80]
    4669:	48 8d 58 60          	lea    rbx,[rax+0x60]
    466d:	48 89 df             	mov    rdi,rbx
    4670:	e8 8b df ff ff       	call   2600 <strlen@plt>
    4675:	48 01 d8             	add    rax,rbx
    4678:	66 c7 00 50 00       	mov    WORD PTR [rax],0x50
    467d:	c6 45 9b 01          	mov    BYTE PTR [rbp-0x65],0x1
    4681:	48 8b 45 c0          	mov    rax,QWORD PTR [rbp-0x40]
    4685:	0f b6 40 0d          	movzx  eax,BYTE PTR [rax+0xd]
    4689:	c0 e8 02             	shr    al,0x2
    468c:	83 e0 01             	and    eax,0x1
    468f:	0f b6 c0             	movzx  eax,al
    4692:	89 c7                	mov    edi,eax
    4694:	e8 97 df ff ff       	call   2630 <ntohs@plt>
    4699:	66 85 c0             	test   ax,ax
    469c:	74 43                	je     46e1 <ip4_tcp_decode+0x332>
    469e:	0f b6 05 bf 58 10 00 	movzx  eax,BYTE PTR [rip+0x1058bf]        # 109f64 <packet_print>
    46a5:	84 c0                	test   al,al
    46a7:	74 18                	je     46c1 <ip4_tcp_decode+0x312>
    46a9:	48 8d 35 ff 82 00 00 	lea    rsi,[rip+0x82ff]        # c9af <_IO_stdin_used+0x9af>
    46b0:	48 8d 3d fe 82 00 00 	lea    rdi,[rip+0x82fe]        # c9b5 <_IO_stdin_used+0x9b5>
    46b7:	b8 00 00 00 00       	mov    eax,0x0
    46bc:	e8 bf dd ff ff       	call   2480 <printf@plt>
    46c1:	c6 45 97 01          	mov    BYTE PTR [rbp-0x69],0x1
    46c5:	48 8b 45 80          	mov    rax,QWORD PTR [rbp-0x80]
    46c9:	48 8d 58 60          	lea    rbx,[rax+0x60]
    46cd:	48 89 df             	mov    rdi,rbx
    46d0:	e8 2b df ff ff       	call   2600 <strlen@plt>
    46d5:	48 01 d8             	add    rax,rbx
    46d8:	66 c7 00 52 00       	mov    WORD PTR [rax],0x52
    46dd:	83 45 9c 01          	add    DWORD PTR [rbp-0x64],0x1
    46e1:	48 8b 45 c0          	mov    rax,QWORD PTR [rbp-0x40]
    46e5:	0f b6 40 0d          	movzx  eax,BYTE PTR [rax+0xd]
    46e9:	d0 e8                	shr    al,1
    46eb:	83 e0 01             	and    eax,0x1
    46ee:	0f b6 c0             	movzx  eax,al
    46f1:	89 c7                	mov    edi,eax
    46f3:	e8 38 df ff ff       	call   2630 <ntohs@plt>
    46f8:	66 85 c0             	test   ax,ax
    46fb:	74 43                	je     4740 <ip4_tcp_decode+0x391>
    46fd:	0f b6 05 60 58 10 00 	movzx  eax,BYTE PTR [rip+0x105860]        # 109f64 <packet_print>
    4704:	84 c0                	test   al,al
    4706:	74 18                	je     4720 <ip4_tcp_decode+0x371>
    4708:	48 8d 35 ae 82 00 00 	lea    rsi,[rip+0x82ae]        # c9bd <_IO_stdin_used+0x9bd>
    470f:	48 8d 3d ad 82 00 00 	lea    rdi,[rip+0x82ad]        # c9c3 <_IO_stdin_used+0x9c3>
    4716:	b8 00 00 00 00       	mov    eax,0x0
    471b:	e8 60 dd ff ff       	call   2480 <printf@plt>
    4720:	c6 45 99 01          	mov    BYTE PTR [rbp-0x67],0x1
    4724:	48 8b 45 80          	mov    rax,QWORD PTR [rbp-0x80]
    4728:	48 8d 58 60          	lea    rbx,[rax+0x60]
    472c:	48 89 df             	mov    rdi,rbx
    472f:	e8 cc de ff ff       	call   2600 <strlen@plt>
    4734:	48 01 d8             	add    rax,rbx
    4737:	66 c7 00 53 00       	mov    WORD PTR [rax],0x53
    473c:	83 45 9c 01          	add    DWORD PTR [rbp-0x64],0x1
    4740:	48 8b 45 c0          	mov    rax,QWORD PTR [rbp-0x40]
    4744:	0f b6 40 0d          	movzx  eax,BYTE PTR [rax+0xd]
    4748:	c0 e8 05             	shr    al,0x5
    474b:	83 e0 01             	and    eax,0x1
    474e:	0f b6 c0             	movzx  eax,al
    4751:	89 c7                	mov    edi,eax
    4753:	e8 d8 de ff ff       	call   2630 <ntohs@plt>
    4758:	66 85 c0             	test   ax,ax
    475b:	74 3f                	je     479c <ip4_tcp_decode+0x3ed>
    475d:	0f b6 05 00 58 10 00 	movzx  eax,BYTE PTR [rip+0x105800]        # 109f64 <packet_print>
    4764:	84 c0                	test   al,al
    4766:	74 18                	je     4780 <ip4_tcp_decode+0x3d1>
    4768:	48 8d 35 5c 82 00 00 	lea    rsi,[rip+0x825c]        # c9cb <_IO_stdin_used+0x9cb>
    476f:	48 8d 3d 5b 82 00 00 	lea    rdi,[rip+0x825b]        # c9d1 <_IO_stdin_used+0x9d1>
    4776:	b8 00 00 00 00       	mov    eax,0x0
    477b:	e8 00 dd ff ff       	call   2480 <printf@plt>
    4780:	83 45 9c 01          	add    DWORD PTR [rbp-0x64],0x1
    4784:	48 8b 45 80          	mov    rax,QWORD PTR [rbp-0x80]
    4788:	48 8d 58 60          	lea    rbx,[rax+0x60]
    478c:	48 89 df             	mov    rdi,rbx
    478f:	e8 6c de ff ff       	call   2600 <strlen@plt>
    4794:	48 01 d8             	add    rax,rbx
    4797:	66 c7 00 55 00       	mov    WORD PTR [rax],0x55
    479c:	0f b6 05 c1 57 10 00 	movzx  eax,BYTE PTR [rip+0x1057c1]        # 109f64 <packet_print>
    47a3:	84 c0                	test   al,al
    47a5:	74 3c                	je     47e3 <ip4_tcp_decode+0x434>
    47a7:	48 8d 35 b2 81 00 00 	lea    rsi,[rip+0x81b2]        # c960 <_IO_stdin_used+0x960>
    47ae:	48 8d 3d b1 81 00 00 	lea    rdi,[rip+0x81b1]        # c966 <_IO_stdin_used+0x966>
    47b5:	b8 00 00 00 00       	mov    eax,0x0
    47ba:	e8 c1 dc ff ff       	call   2480 <printf@plt>
    47bf:	48 8d 3d 13 82 00 00 	lea    rdi,[rip+0x8213]        # c9d9 <_IO_stdin_used+0x9d9>
    47c6:	e8 15 dd ff ff       	call   24e0 <puts@plt>
    47cb:	48 8d 35 09 82 00 00 	lea    rsi,[rip+0x8209]        # c9db <_IO_stdin_used+0x9db>
    47d2:	48 8d 3d 8d 81 00 00 	lea    rdi,[rip+0x818d]        # c966 <_IO_stdin_used+0x966>
    47d9:	b8 00 00 00 00       	mov    eax,0x0
    47de:	e8 9d dc ff ff       	call   2480 <printf@plt>
    47e3:	83 7d 9c 03          	cmp    DWORD PTR [rbp-0x64],0x3
    47e7:	7f 06                	jg     47ef <ip4_tcp_decode+0x440>
    47e9:	83 7d 9c 00          	cmp    DWORD PTR [rbp-0x64],0x0
    47ed:	75 41                	jne    4830 <ip4_tcp_decode+0x481>
    47ef:	8b 7d a0             	mov    edi,DWORD PTR [rbp-0x60]
    47f2:	48 8b 75 d0          	mov    rsi,QWORD PTR [rbp-0x30]
    47f6:	8b 55 a4             	mov    edx,DWORD PTR [rbp-0x5c]
    47f9:	48 8b 45 c8          	mov    rax,QWORD PTR [rbp-0x38]
    47fd:	48 8d 0d d7 81 00 00 	lea    rcx,[rip+0x81d7]        # c9db <_IO_stdin_used+0x9db>
    4804:	51                   	push   rcx
    4805:	8b 4d 9c             	mov    ecx,DWORD PTR [rbp-0x64]
    4808:	51                   	push   rcx
    4809:	41 89 f9             	mov    r9d,edi
    480c:	49 89 f0             	mov    r8,rsi
    480f:	89 d1                	mov    ecx,edx
    4811:	48 89 c2             	mov    rdx,rax
    4814:	48 8d 35 94 81 00 00 	lea    rsi,[rip+0x8194]        # c9af <_IO_stdin_used+0x9af>
    481b:	48 8d 3d be 81 00 00 	lea    rdi,[rip+0x81be]        # c9e0 <_IO_stdin_used+0x9e0>
    4822:	b8 00 00 00 00       	mov    eax,0x0
    4827:	e8 54 dc ff ff       	call   2480 <printf@plt>
    482c:	48 83 c4 10          	add    rsp,0x10
    4830:	0f b6 05 8b 57 10 00 	movzx  eax,BYTE PTR [rip+0x10578b]        # 109fc2 <use_spi>
    4837:	84 c0                	test   al,al
    4839:	0f 84 8c 00 00 00    	je     48cb <ip4_tcp_decode+0x51c>
    483f:	80 7d 9b 00          	cmp    BYTE PTR [rbp-0x65],0x0
    4843:	74 1a                	je     485f <ip4_tcp_decode+0x4b0>
    4845:	80 7d 98 00          	cmp    BYTE PTR [rbp-0x68],0x0
    4849:	74 14                	je     485f <ip4_tcp_decode+0x4b0>
    484b:	83 7d 9c 02          	cmp    DWORD PTR [rbp-0x64],0x2
    484f:	75 0e                	jne    485f <ip4_tcp_decode+0x4b0>
    4851:	48 8b 45 80          	mov    rax,QWORD PTR [rbp-0x80]
    4855:	48 89 c7             	mov    rdi,rax
    4858:	e8 3a 45 00 00       	call   8d97 <handle_data_pkt>
    485d:	eb 6c                	jmp    48cb <ip4_tcp_decode+0x51c>
    485f:	80 7d 9a 00          	cmp    BYTE PTR [rbp-0x66],0x0
    4863:	74 14                	je     4879 <ip4_tcp_decode+0x4ca>
    4865:	80 7d 98 00          	cmp    BYTE PTR [rbp-0x68],0x0
    4869:	74 0e                	je     4879 <ip4_tcp_decode+0x4ca>
    486b:	48 8b 45 80          	mov    rax,QWORD PTR [rbp-0x80]
    486f:	48 89 c7             	mov    rdi,rax
    4872:	e8 13 44 00 00       	call   8c8a <polite_end>
    4877:	eb 52                	jmp    48cb <ip4_tcp_decode+0x51c>
    4879:	80 7d 99 00          	cmp    BYTE PTR [rbp-0x67],0x0
    487d:	74 14                	je     4893 <ip4_tcp_decode+0x4e4>
    487f:	83 7d 9c 01          	cmp    DWORD PTR [rbp-0x64],0x1
    4883:	75 0e                	jne    4893 <ip4_tcp_decode+0x4e4>
    4885:	48 8b 45 80          	mov    rax,QWORD PTR [rbp-0x80]
    4889:	48 89 c7             	mov    rdi,rax
    488c:	e8 71 3f 00 00       	call   8802 <add_new_conversation>
    4891:	eb 38                	jmp    48cb <ip4_tcp_decode+0x51c>
    4893:	80 7d 99 00          	cmp    BYTE PTR [rbp-0x67],0x0
    4897:	74 1a                	je     48b3 <ip4_tcp_decode+0x504>
    4899:	80 7d 98 00          	cmp    BYTE PTR [rbp-0x68],0x0
    489d:	74 14                	je     48b3 <ip4_tcp_decode+0x504>
    489f:	83 7d 9c 02          	cmp    DWORD PTR [rbp-0x64],0x2
    48a3:	75 0e                	jne    48b3 <ip4_tcp_decode+0x504>
    48a5:	48 8b 45 80          	mov    rax,QWORD PTR [rbp-0x80]
    48a9:	48 89 c7             	mov    rdi,rax
    48ac:	e8 7b 41 00 00       	call   8a2c <spi_ud_thw>
    48b1:	eb 18                	jmp    48cb <ip4_tcp_decode+0x51c>
    48b3:	80 7d 98 00          	cmp    BYTE PTR [rbp-0x68],0x0
    48b7:	74 12                	je     48cb <ip4_tcp_decode+0x51c>
    48b9:	83 7d 9c 01          	cmp    DWORD PTR [rbp-0x64],0x1
    48bd:	75 0c                	jne    48cb <ip4_tcp_decode+0x51c>
    48bf:	48 8b 45 80          	mov    rax,QWORD PTR [rbp-0x80]
    48c3:	48 89 c7             	mov    rdi,rax
    48c6:	e8 24 42 00 00       	call   8aef <update_table>
    48cb:	80 7d 9b 00          	cmp    BYTE PTR [rbp-0x65],0x0
    48cf:	74 17                	je     48e8 <ip4_tcp_decode+0x539>
    48d1:	80 7d 98 00          	cmp    BYTE PTR [rbp-0x68],0x0
    48d5:	74 11                	je     48e8 <ip4_tcp_decode+0x539>
    48d7:	83 7d 9c 02          	cmp    DWORD PTR [rbp-0x64],0x2
    48db:	75 0b                	jne    48e8 <ip4_tcp_decode+0x539>
    48dd:	48 8b 45 80          	mov    rax,QWORD PTR [rbp-0x80]
    48e1:	c7 40 68 01 00 00 00 	mov    DWORD PTR [rax+0x68],0x1
    48e8:	80 7d 97 00          	cmp    BYTE PTR [rbp-0x69],0x0
    48ec:	0f 84 8f 01 00 00    	je     4a81 <ip4_tcp_decode+0x6d2>
    48f2:	48 8b 45 80          	mov    rax,QWORD PTR [rbp-0x80]
    48f6:	48 8b 40 10          	mov    rax,QWORD PTR [rax+0x10]
    48fa:	48 89 c7             	mov    rdi,rax
    48fd:	e8 6a 2f 00 00       	call   786c <member_exists>
    4902:	89 45 a8             	mov    DWORD PTR [rbp-0x58],eax
    4905:	83 7d a8 ff          	cmp    DWORD PTR [rbp-0x58],0xffffffff
    4909:	0f 84 db 00 00 00    	je     49ea <ip4_tcp_decode+0x63b>
    490f:	8b 45 a8             	mov    eax,DWORD PTR [rbp-0x58]
    4912:	48 63 d0             	movsxd rdx,eax
    4915:	48 89 d0             	mov    rax,rdx
    4918:	48 c1 e0 02          	shl    rax,0x2
    491c:	48 01 d0             	add    rax,rdx
    491f:	48 c1 e0 03          	shl    rax,0x3
    4923:	48 01 d0             	add    rax,rdx
    4926:	48 c1 e0 04          	shl    rax,0x4
    492a:	48 8d 15 ef eb 0e 00 	lea    rdx,[rip+0xeebef]        # f3520 <watchlist>
    4931:	48 01 d0             	add    rax,rdx
    4934:	48 89 45 e0          	mov    QWORD PTR [rbp-0x20],rax
    4938:	48 8b 45 80          	mov    rax,QWORD PTR [rbp-0x80]
    493c:	48 8b 40 10          	mov    rax,QWORD PTR [rax+0x10]
    4940:	48 8b 55 e0          	mov    rdx,QWORD PTR [rbp-0x20]
    4944:	48 83 c2 08          	add    rdx,0x8
    4948:	48 89 c6             	mov    rsi,rax
    494b:	48 89 d7             	mov    rdi,rdx
    494e:	e8 1d de ff ff       	call   2770 <strcpy@plt>
    4953:	bf 00 00 00 00       	mov    edi,0x0
    4958:	e8 13 df ff ff       	call   2870 <time@plt>
    495d:	48 8b 55 e0          	mov    rdx,QWORD PTR [rbp-0x20]
    4961:	8b 92 48 01 00 00    	mov    edx,DWORD PTR [rdx+0x148]
    4967:	8d 72 01             	lea    esi,[rdx+0x1]
    496a:	48 8b 4d e0          	mov    rcx,QWORD PTR [rbp-0x20]
    496e:	89 b1 48 01 00 00    	mov    DWORD PTR [rcx+0x148],esi
    4974:	48 89 c1             	mov    rcx,rax
    4977:	48 8b 45 e0          	mov    rax,QWORD PTR [rbp-0x20]
    497b:	89 d2                	mov    edx,edx
    497d:	48 83 c2 28          	add    rdx,0x28
    4981:	48 89 4c d0 10       	mov    QWORD PTR [rax+rdx*8+0x10],rcx
    4986:	48 8b 45 e0          	mov    rax,QWORD PTR [rbp-0x20]
    498a:	8b 80 48 01 00 00    	mov    eax,DWORD PTR [rax+0x148]
    4990:	83 f8 1d             	cmp    eax,0x1d
    4993:	0f 86 e8 00 00 00    	jbe    4a81 <ip4_tcp_decode+0x6d2>
    4999:	48 8b 45 e0          	mov    rax,QWORD PTR [rbp-0x20]
    499d:	c7 80 48 01 00 00 1e 	mov    DWORD PTR [rax+0x148],0x1e
    49a4:	00 00 00 
    49a7:	48 8b 45 e0          	mov    rax,QWORD PTR [rbp-0x20]
    49ab:	48 89 c7             	mov    rdi,rax
    49ae:	e8 77 2a 00 00       	call   742a <tcp_rst_portscan_detect>
    49b3:	84 c0                	test   al,al
    49b5:	0f 84 c6 00 00 00    	je     4a81 <ip4_tcp_decode+0x6d2>
    49bb:	48 8b 45 e0          	mov    rax,QWORD PTR [rbp-0x20]
    49bf:	c7 80 48 01 00 00 00 	mov    DWORD PTR [rax+0x148],0x0
    49c6:	00 00 00 
    49c9:	48 8b 45 e0          	mov    rax,QWORD PTR [rbp-0x20]
    49cd:	48 05 50 01 00 00    	add    rax,0x150
    49d3:	ba f0 00 00 00       	mov    edx,0xf0
    49d8:	be 00 00 00 00       	mov    esi,0x0
    49dd:	48 89 c7             	mov    rdi,rax
    49e0:	e8 ab da ff ff       	call   2490 <memset@plt>
    49e5:	e9 97 00 00 00       	jmp    4a81 <ip4_tcp_decode+0x6d2>
    49ea:	8b 05 28 c6 00 00    	mov    eax,DWORD PTR [rip+0xc628]        # 11018 <watchlist_num>
    49f0:	83 c0 01             	add    eax,0x1
    49f3:	89 05 1f c6 00 00    	mov    DWORD PTR [rip+0xc61f],eax        # 11018 <watchlist_num>
    49f9:	8b 05 19 c6 00 00    	mov    eax,DWORD PTR [rip+0xc619]        # 11018 <watchlist_num>
    49ff:	48 63 d0             	movsxd rdx,eax
    4a02:	48 89 d0             	mov    rax,rdx
    4a05:	48 c1 e0 02          	shl    rax,0x2
    4a09:	48 01 d0             	add    rax,rdx
    4a0c:	48 c1 e0 03          	shl    rax,0x3
    4a10:	48 01 d0             	add    rax,rdx
    4a13:	48 c1 e0 04          	shl    rax,0x4
    4a17:	48 8d 15 02 eb 0e 00 	lea    rdx,[rip+0xeeb02]        # f3520 <watchlist>
    4a1e:	48 01 d0             	add    rax,rdx
    4a21:	48 89 45 d8          	mov    QWORD PTR [rbp-0x28],rax
    4a25:	48 8b 45 80          	mov    rax,QWORD PTR [rbp-0x80]
    4a29:	48 8b 40 10          	mov    rax,QWORD PTR [rax+0x10]
    4a2d:	48 8b 55 d8          	mov    rdx,QWORD PTR [rbp-0x28]
    4a31:	48 83 c2 08          	add    rdx,0x8
    4a35:	48 89 c6             	mov    rsi,rax
    4a38:	48 89 d7             	mov    rdi,rdx
    4a3b:	e8 30 dd ff ff       	call   2770 <strcpy@plt>
    4a40:	48 8b 45 d8          	mov    rax,QWORD PTR [rbp-0x28]
    4a44:	c7 80 48 01 00 00 00 	mov    DWORD PTR [rax+0x148],0x0
    4a4b:	00 00 00 
    4a4e:	bf 00 00 00 00       	mov    edi,0x0
    4a53:	e8 18 de ff ff       	call   2870 <time@plt>
    4a58:	48 8b 55 d8          	mov    rdx,QWORD PTR [rbp-0x28]
    4a5c:	8b 92 48 01 00 00    	mov    edx,DWORD PTR [rdx+0x148]
    4a62:	8d 72 01             	lea    esi,[rdx+0x1]
    4a65:	48 8b 4d d8          	mov    rcx,QWORD PTR [rbp-0x28]
    4a69:	89 b1 48 01 00 00    	mov    DWORD PTR [rcx+0x148],esi
    4a6f:	48 89 c1             	mov    rcx,rax
    4a72:	48 8b 45 d8          	mov    rax,QWORD PTR [rbp-0x28]
    4a76:	89 d2                	mov    edx,edx
    4a78:	48 83 c2 28          	add    rdx,0x28
    4a7c:	48 89 4c d0 10       	mov    QWORD PTR [rax+rdx*8+0x10],rcx
    4a81:	8b 05 01 c6 00 00    	mov    eax,DWORD PTR [rip+0xc601]        # 11088 <strict_nmap_host_alive_check>
    4a87:	83 f8 01             	cmp    eax,0x1
    4a8a:	0f 85 f6 00 00 00    	jne    4b86 <ip4_tcp_decode+0x7d7>
    4a90:	80 7d 98 00          	cmp    BYTE PTR [rbp-0x68],0x0
    4a94:	74 0c                	je     4aa2 <ip4_tcp_decode+0x6f3>
    4a96:	83 7d a0 50          	cmp    DWORD PTR [rbp-0x60],0x50
    4a9a:	74 26                	je     4ac2 <ip4_tcp_decode+0x713>
    4a9c:	83 7d a4 50          	cmp    DWORD PTR [rbp-0x5c],0x50
    4aa0:	74 20                	je     4ac2 <ip4_tcp_decode+0x713>
    4aa2:	80 7d 99 00          	cmp    BYTE PTR [rbp-0x67],0x0
    4aa6:	0f 84 da 00 00 00    	je     4b86 <ip4_tcp_decode+0x7d7>
    4aac:	81 7d a0 bb 01 00 00 	cmp    DWORD PTR [rbp-0x60],0x1bb
    4ab3:	74 0d                	je     4ac2 <ip4_tcp_decode+0x713>
    4ab5:	81 7d a4 bb 01 00 00 	cmp    DWORD PTR [rbp-0x5c],0x1bb
    4abc:	0f 85 c4 00 00 00    	jne    4b86 <ip4_tcp_decode+0x7d7>
    4ac2:	8b 45 a0             	mov    eax,DWORD PTR [rbp-0x60]
    4ac5:	3b 45 a4             	cmp    eax,DWORD PTR [rbp-0x5c]
    4ac8:	76 0a                	jbe    4ad4 <ip4_tcp_decode+0x725>
    4aca:	48 8b 45 d0          	mov    rax,QWORD PTR [rbp-0x30]
    4ace:	48 89 45 b0          	mov    QWORD PTR [rbp-0x50],rax
    4ad2:	eb 08                	jmp    4adc <ip4_tcp_decode+0x72d>
    4ad4:	48 8b 45 c8          	mov    rax,QWORD PTR [rbp-0x38]
    4ad8:	48 89 45 b0          	mov    QWORD PTR [rbp-0x50],rax
    4adc:	48 8b 45 b0          	mov    rax,QWORD PTR [rbp-0x50]
    4ae0:	48 89 c7             	mov    rdi,rax
    4ae3:	e8 84 2d 00 00       	call   786c <member_exists>
    4ae8:	89 45 ac             	mov    DWORD PTR [rbp-0x54],eax
    4aeb:	83 7d ac ff          	cmp    DWORD PTR [rbp-0x54],0xffffffff
    4aef:	0f 84 91 00 00 00    	je     4b86 <ip4_tcp_decode+0x7d7>
    4af5:	8b 45 ac             	mov    eax,DWORD PTR [rbp-0x54]
    4af8:	48 63 d0             	movsxd rdx,eax
    4afb:	48 89 d0             	mov    rax,rdx
    4afe:	48 c1 e0 02          	shl    rax,0x2
    4b02:	48 01 d0             	add    rax,rdx
    4b05:	48 c1 e0 03          	shl    rax,0x3
    4b09:	48 01 d0             	add    rax,rdx
    4b0c:	48 c1 e0 04          	shl    rax,0x4
    4b10:	48 8d 15 09 ea 0e 00 	lea    rdx,[rip+0xeea09]        # f3520 <watchlist>
    4b17:	48 01 d0             	add    rax,rdx
    4b1a:	48 89 45 e8          	mov    QWORD PTR [rbp-0x18],rax
    4b1e:	48 8b 45 e8          	mov    rax,QWORD PTR [rbp-0x18]
    4b22:	8b 40 34             	mov    eax,DWORD PTR [rax+0x34]
    4b25:	85 c0                	test   eax,eax
    4b27:	75 2a                	jne    4b53 <ip4_tcp_decode+0x7a4>
    4b29:	48 8b 45 e8          	mov    rax,QWORD PTR [rbp-0x18]
    4b2d:	8b 40 40             	mov    eax,DWORD PTR [rax+0x40]
    4b30:	83 f8 01             	cmp    eax,0x1
    4b33:	75 1e                	jne    4b53 <ip4_tcp_decode+0x7a4>
    4b35:	48 8b 45 e8          	mov    rax,QWORD PTR [rbp-0x18]
    4b39:	c7 40 34 01 00 00 00 	mov    DWORD PTR [rax+0x34],0x1
    4b40:	48 8b 45 e8          	mov    rax,QWORD PTR [rbp-0x18]
    4b44:	8b 40 40             	mov    eax,DWORD PTR [rax+0x40]
    4b47:	8d 50 01             	lea    edx,[rax+0x1]
    4b4a:	48 8b 45 e8          	mov    rax,QWORD PTR [rbp-0x18]
    4b4e:	89 50 40             	mov    DWORD PTR [rax+0x40],edx
    4b51:	eb 33                	jmp    4b86 <ip4_tcp_decode+0x7d7>
    4b53:	48 8b 45 e8          	mov    rax,QWORD PTR [rbp-0x18]
    4b57:	8b 40 38             	mov    eax,DWORD PTR [rax+0x38]
    4b5a:	85 c0                	test   eax,eax
    4b5c:	75 28                	jne    4b86 <ip4_tcp_decode+0x7d7>
    4b5e:	48 8b 45 e8          	mov    rax,QWORD PTR [rbp-0x18]
    4b62:	8b 40 40             	mov    eax,DWORD PTR [rax+0x40]
    4b65:	83 f8 02             	cmp    eax,0x2
    4b68:	75 1c                	jne    4b86 <ip4_tcp_decode+0x7d7>
    4b6a:	48 8b 45 e8          	mov    rax,QWORD PTR [rbp-0x18]
    4b6e:	c7 40 38 01 00 00 00 	mov    DWORD PTR [rax+0x38],0x1
    4b75:	48 8b 45 e8          	mov    rax,QWORD PTR [rbp-0x18]
    4b79:	8b 40 40             	mov    eax,DWORD PTR [rax+0x40]
    4b7c:	8d 50 01             	lea    edx,[rax+0x1]
    4b7f:	48 8b 45 e8          	mov    rax,QWORD PTR [rbp-0x18]
    4b83:	89 50 40             	mov    DWORD PTR [rax+0x40],edx
    4b86:	0f b6 05 d7 53 10 00 	movzx  eax,BYTE PTR [rip+0x1053d7]        # 109f64 <packet_print>
    4b8d:	84 c0                	test   al,al
    4b8f:	74 3a                	je     4bcb <ip4_tcp_decode+0x81c>
    4b91:	80 7d 9b 00          	cmp    BYTE PTR [rbp-0x65],0x0
    4b95:	74 34                	je     4bcb <ip4_tcp_decode+0x81c>
    4b97:	80 7d 98 00          	cmp    BYTE PTR [rbp-0x68],0x0
    4b9b:	74 2e                	je     4bcb <ip4_tcp_decode+0x81c>
    4b9d:	0f b6 45 9a          	movzx  eax,BYTE PTR [rbp-0x66]
    4ba1:	83 f0 01             	xor    eax,0x1
    4ba4:	84 c0                	test   al,al
    4ba6:	74 23                	je     4bcb <ip4_tcp_decode+0x81c>
    4ba8:	83 7d a0 50          	cmp    DWORD PTR [rbp-0x60],0x50
    4bac:	74 06                	je     4bb4 <ip4_tcp_decode+0x805>
    4bae:	83 7d a4 50          	cmp    DWORD PTR [rbp-0x5c],0x50
    4bb2:	75 17                	jne    4bcb <ip4_tcp_decode+0x81c>
    4bb4:	48 8b 45 88          	mov    rax,QWORD PTR [rbp-0x78]
    4bb8:	48 8d 50 42          	lea    rdx,[rax+0x42]
    4bbc:	48 8b 45 80          	mov    rax,QWORD PTR [rbp-0x80]
    4bc0:	48 89 c6             	mov    rsi,rax
    4bc3:	48 89 d7             	mov    rdi,rdx
    4bc6:	e8 67 36 00 00       	call   8232 <http_disect>
    4bcb:	83 7d a0 15          	cmp    DWORD PTR [rbp-0x60],0x15
    4bcf:	74 06                	je     4bd7 <ip4_tcp_decode+0x828>
    4bd1:	83 7d a4 15          	cmp    DWORD PTR [rbp-0x5c],0x15
    4bd5:	75 2d                	jne    4c04 <ip4_tcp_decode+0x855>
    4bd7:	48 8b 45 c0          	mov    rax,QWORD PTR [rbp-0x40]
    4bdb:	0f b6 40 0c          	movzx  eax,BYTE PTR [rax+0xc]
    4bdf:	c0 e8 04             	shr    al,0x4
    4be2:	0f b6 c0             	movzx  eax,al
    4be5:	c1 e0 02             	shl    eax,0x2
    4be8:	48 98                	cdqe   
    4bea:	48 8d 50 22          	lea    rdx,[rax+0x22]
    4bee:	48 8b 45 88          	mov    rax,QWORD PTR [rbp-0x78]
    4bf2:	48 01 c2             	add    rdx,rax
    4bf5:	48 8b 45 80          	mov    rax,QWORD PTR [rbp-0x80]
    4bf9:	48 89 c6             	mov    rsi,rax
    4bfc:	48 89 d7             	mov    rdi,rdx
    4bff:	e8 19 38 00 00       	call   841d <ftp_disect>
    4c04:	48 8b 85 78 ff ff ff 	mov    rax,QWORD PTR [rbp-0x88]
    4c0b:	8b 50 14             	mov    edx,DWORD PTR [rax+0x14]
    4c0e:	48 8b 45 c0          	mov    rax,QWORD PTR [rbp-0x40]
    4c12:	0f b6 40 0c          	movzx  eax,BYTE PTR [rax+0xc]
    4c16:	c0 e8 04             	shr    al,0x4
    4c19:	0f b6 c0             	movzx  eax,al
    4c1c:	c1 e0 02             	shl    eax,0x2
    4c1f:	89 c1                	mov    ecx,eax
    4c21:	89 d0                	mov    eax,edx
    4c23:	29 c8                	sub    eax,ecx
    4c25:	8d 50 de             	lea    edx,[rax-0x22]
    4c28:	48 8b 45 80          	mov    rax,QWORD PTR [rbp-0x80]
    4c2c:	89 50 34             	mov    DWORD PTR [rax+0x34],edx
    4c2f:	48 8b 45 80          	mov    rax,QWORD PTR [rbp-0x80]
    4c33:	48 89 c7             	mov    rdi,rax
    4c36:	e8 5c 17 00 00       	call   6397 <rulemgr>
    4c3b:	90                   	nop
    4c3c:	48 8b 5d f8          	mov    rbx,QWORD PTR [rbp-0x8]
    4c40:	c9                   	leave  
    4c41:	c3                   	ret    

0000000000004c42 <ip4_udp_decode>:
    4c42:	f3 0f 1e fa          	endbr64 
    4c46:	55                   	push   rbp
    4c47:	48 89 e5             	mov    rbp,rsp
    4c4a:	48 83 ec 30          	sub    rsp,0x30
    4c4e:	48 89 7d e8          	mov    QWORD PTR [rbp-0x18],rdi
    4c52:	48 89 75 e0          	mov    QWORD PTR [rbp-0x20],rsi
    4c56:	48 89 55 d8          	mov    QWORD PTR [rbp-0x28],rdx
    4c5a:	48 8b 45 e8          	mov    rax,QWORD PTR [rbp-0x18]
    4c5e:	48 83 c0 22          	add    rax,0x22
    4c62:	48 89 45 f8          	mov    QWORD PTR [rbp-0x8],rax
    4c66:	48 8b 45 e8          	mov    rax,QWORD PTR [rbp-0x18]
    4c6a:	48 8d 50 2a          	lea    rdx,[rax+0x2a]
    4c6e:	48 8b 45 e0          	mov    rax,QWORD PTR [rbp-0x20]
    4c72:	48 89 10             	mov    QWORD PTR [rax],rdx
    4c75:	48 8b 45 e0          	mov    rax,QWORD PTR [rbp-0x20]
    4c79:	48 8b 40 08          	mov    rax,QWORD PTR [rax+0x8]
    4c7d:	ba 5d 00 00 00       	mov    edx,0x5d
    4c82:	be 01 00 00 00       	mov    esi,0x1
    4c87:	48 89 c7             	mov    rdi,rax
    4c8a:	e8 07 02 00 00       	call   4e96 <add_ip_addr_or_inc_counter>
    4c8f:	48 8b 45 e0          	mov    rax,QWORD PTR [rbp-0x20]
    4c93:	48 8b 40 10          	mov    rax,QWORD PTR [rax+0x10]
    4c97:	ba 5d 00 00 00       	mov    edx,0x5d
    4c9c:	be 00 00 00 00       	mov    esi,0x0
    4ca1:	48 89 c7             	mov    rdi,rax
    4ca4:	e8 ed 01 00 00       	call   4e96 <add_ip_addr_or_inc_counter>
    4ca9:	48 8b 45 f8          	mov    rax,QWORD PTR [rbp-0x8]
    4cad:	0f b7 00             	movzx  eax,WORD PTR [rax]
    4cb0:	0f b7 c0             	movzx  eax,ax
    4cb3:	89 c7                	mov    edi,eax
    4cb5:	e8 76 d9 ff ff       	call   2630 <ntohs@plt>
    4cba:	0f b7 c0             	movzx  eax,ax
    4cbd:	89 45 f0             	mov    DWORD PTR [rbp-0x10],eax
    4cc0:	48 8b 45 f8          	mov    rax,QWORD PTR [rbp-0x8]
    4cc4:	0f b7 40 02          	movzx  eax,WORD PTR [rax+0x2]
    4cc8:	0f b7 c0             	movzx  eax,ax
    4ccb:	89 c7                	mov    edi,eax
    4ccd:	e8 5e d9 ff ff       	call   2630 <ntohs@plt>
    4cd2:	0f b7 c0             	movzx  eax,ax
    4cd5:	89 45 f4             	mov    DWORD PTR [rbp-0xc],eax
    4cd8:	0f b6 05 85 52 10 00 	movzx  eax,BYTE PTR [rip+0x105285]        # 109f64 <packet_print>
    4cdf:	84 c0                	test   al,al
    4ce1:	74 5d                	je     4d40 <ip4_udp_decode+0xfe>
    4ce3:	48 8d 35 36 7d 00 00 	lea    rsi,[rip+0x7d36]        # ca20 <_IO_stdin_used+0xa20>
    4cea:	48 8d 3d 35 7d 00 00 	lea    rdi,[rip+0x7d35]        # ca26 <_IO_stdin_used+0xa26>
    4cf1:	b8 00 00 00 00       	mov    eax,0x0
    4cf6:	e8 85 d7 ff ff       	call   2480 <printf@plt>
    4cfb:	48 8b 45 e0          	mov    rax,QWORD PTR [rbp-0x20]
    4cff:	48 8b 48 10          	mov    rcx,QWORD PTR [rax+0x10]
    4d03:	48 8b 45 e0          	mov    rax,QWORD PTR [rbp-0x20]
    4d07:	48 8b 40 08          	mov    rax,QWORD PTR [rax+0x8]
    4d0b:	8b 75 f4             	mov    esi,DWORD PTR [rbp-0xc]
    4d0e:	8b 55 f0             	mov    edx,DWORD PTR [rbp-0x10]
    4d11:	41 89 f0             	mov    r8d,esi
    4d14:	48 89 c6             	mov    rsi,rax
    4d17:	48 8d 3d 0b 7d 00 00 	lea    rdi,[rip+0x7d0b]        # ca29 <_IO_stdin_used+0xa29>
    4d1e:	b8 00 00 00 00       	mov    eax,0x0
    4d23:	e8 58 d7 ff ff       	call   2480 <printf@plt>
    4d28:	48 8d 35 13 7d 00 00 	lea    rsi,[rip+0x7d13]        # ca42 <_IO_stdin_used+0xa42>
    4d2f:	48 8d 3d f0 7c 00 00 	lea    rdi,[rip+0x7cf0]        # ca26 <_IO_stdin_used+0xa26>
    4d36:	b8 00 00 00 00       	mov    eax,0x0
    4d3b:	e8 40 d7 ff ff       	call   2480 <printf@plt>
    4d40:	48 8b 45 e0          	mov    rax,QWORD PTR [rbp-0x20]
    4d44:	8b 55 f0             	mov    edx,DWORD PTR [rbp-0x10]
    4d47:	89 50 24             	mov    DWORD PTR [rax+0x24],edx
    4d4a:	48 8b 45 e0          	mov    rax,QWORD PTR [rbp-0x20]
    4d4e:	8b 55 f4             	mov    edx,DWORD PTR [rbp-0xc]
    4d51:	89 50 28             	mov    DWORD PTR [rax+0x28],edx
    4d54:	83 7d f0 35          	cmp    DWORD PTR [rbp-0x10],0x35
    4d58:	74 06                	je     4d60 <ip4_udp_decode+0x11e>
    4d5a:	83 7d f4 35          	cmp    DWORD PTR [rbp-0xc],0x35
    4d5e:	75 17                	jne    4d77 <ip4_udp_decode+0x135>
    4d60:	48 8b 45 e8          	mov    rax,QWORD PTR [rbp-0x18]
    4d64:	48 8d 50 2b          	lea    rdx,[rax+0x2b]
    4d68:	48 8b 45 e0          	mov    rax,QWORD PTR [rbp-0x20]
    4d6c:	48 89 c6             	mov    rsi,rax
    4d6f:	48 89 d7             	mov    rdi,rdx
    4d72:	e8 6d 35 00 00       	call   82e4 <dns_disect>
    4d77:	48 8b 45 d8          	mov    rax,QWORD PTR [rbp-0x28]
    4d7b:	8b 40 14             	mov    eax,DWORD PTR [rax+0x14]
    4d7e:	8d 50 d6             	lea    edx,[rax-0x2a]
    4d81:	48 8b 45 e0          	mov    rax,QWORD PTR [rbp-0x20]
    4d85:	89 50 34             	mov    DWORD PTR [rax+0x34],edx
    4d88:	48 8b 45 e0          	mov    rax,QWORD PTR [rbp-0x20]
    4d8c:	48 89 c7             	mov    rdi,rax
    4d8f:	e8 03 16 00 00       	call   6397 <rulemgr>
    4d94:	90                   	nop
    4d95:	c9                   	leave  
    4d96:	c3                   	ret    

0000000000004d97 <ip4_igmp_decode>:
    4d97:	f3 0f 1e fa          	endbr64 
    4d9b:	55                   	push   rbp
    4d9c:	48 89 e5             	mov    rbp,rsp
    4d9f:	48 83 ec 60          	sub    rsp,0x60
    4da3:	48 89 7d b8          	mov    QWORD PTR [rbp-0x48],rdi
    4da7:	48 89 75 b0          	mov    QWORD PTR [rbp-0x50],rsi
    4dab:	48 89 55 a8          	mov    QWORD PTR [rbp-0x58],rdx
    4daf:	64 48 8b 04 25 28 00 	mov    rax,QWORD PTR fs:0x28
    4db6:	00 00 
    4db8:	48 89 45 f8          	mov    QWORD PTR [rbp-0x8],rax
    4dbc:	31 c0                	xor    eax,eax
    4dbe:	0f b6 05 9f 51 10 00 	movzx  eax,BYTE PTR [rip+0x10519f]        # 109f64 <packet_print>
    4dc5:	84 c0                	test   al,al
    4dc7:	0f 84 b1 00 00 00    	je     4e7e <ip4_igmp_decode+0xe7>
    4dcd:	48 8b 45 b8          	mov    rax,QWORD PTR [rbp-0x48]
    4dd1:	48 83 c0 26          	add    rax,0x26
    4dd5:	48 89 45 c0          	mov    QWORD PTR [rbp-0x40],rax
    4dd9:	48 8b 55 a8          	mov    rdx,QWORD PTR [rbp-0x58]
    4ddd:	48 8b 45 b0          	mov    rax,QWORD PTR [rbp-0x50]
    4de1:	48 89 c6             	mov    rsi,rax
    4de4:	48 8d 3d 5d 7c 00 00 	lea    rdi,[rip+0x7c5d]        # ca48 <_IO_stdin_used+0xa48>
    4deb:	b8 00 00 00 00       	mov    eax,0x0
    4df0:	e8 8b d6 ff ff       	call   2480 <printf@plt>
    4df5:	48 8b 45 c0          	mov    rax,QWORD PTR [rbp-0x40]
    4df9:	0f b6 00             	movzx  eax,BYTE PTR [rax]
    4dfc:	0f b6 c0             	movzx  eax,al
    4dff:	83 f8 11             	cmp    eax,0x11
    4e02:	74 07                	je     4e0b <ip4_igmp_decode+0x74>
    4e04:	83 f8 22             	cmp    eax,0x22
    4e07:	74 10                	je     4e19 <ip4_igmp_decode+0x82>
    4e09:	eb 54                	jmp    4e5f <ip4_igmp_decode+0xc8>
    4e0b:	48 8d 3d 4b 7c 00 00 	lea    rdi,[rip+0x7c4b]        # ca5d <_IO_stdin_used+0xa5d>
    4e12:	e8 c9 d6 ff ff       	call   24e0 <puts@plt>
    4e17:	eb 66                	jmp    4e7f <ip4_igmp_decode+0xe8>
    4e19:	48 8b 45 b8          	mov    rax,QWORD PTR [rbp-0x48]
    4e1d:	48 83 c0 26          	add    rax,0x26
    4e21:	48 89 45 c8          	mov    QWORD PTR [rbp-0x38],rax
    4e25:	48 8b 45 c8          	mov    rax,QWORD PTR [rbp-0x38]
    4e29:	8b 40 0c             	mov    eax,DWORD PTR [rax+0xc]
    4e2c:	89 c7                	mov    edi,eax
    4e2e:	e8 ac e2 ff ff       	call   30df <ipv4_ntoa>
    4e33:	48 89 c2             	mov    rdx,rax
    4e36:	48 8d 45 d0          	lea    rax,[rbp-0x30]
    4e3a:	48 89 d6             	mov    rsi,rdx
    4e3d:	48 89 c7             	mov    rdi,rax
    4e40:	e8 2b d9 ff ff       	call   2770 <strcpy@plt>
    4e45:	48 8d 45 d0          	lea    rax,[rbp-0x30]
    4e49:	48 89 c6             	mov    rsi,rax
    4e4c:	48 8d 3d 25 7c 00 00 	lea    rdi,[rip+0x7c25]        # ca78 <_IO_stdin_used+0xa78>
    4e53:	b8 00 00 00 00       	mov    eax,0x0
    4e58:	e8 23 d6 ff ff       	call   2480 <printf@plt>
    4e5d:	eb 20                	jmp    4e7f <ip4_igmp_decode+0xe8>
    4e5f:	48 8b 45 c0          	mov    rax,QWORD PTR [rbp-0x40]
    4e63:	0f b6 00             	movzx  eax,BYTE PTR [rax]
    4e66:	0f b6 c0             	movzx  eax,al
    4e69:	89 c6                	mov    esi,eax
    4e6b:	48 8d 3d 3c 7c 00 00 	lea    rdi,[rip+0x7c3c]        # caae <_IO_stdin_used+0xaae>
    4e72:	b8 00 00 00 00       	mov    eax,0x0
    4e77:	e8 04 d6 ff ff       	call   2480 <printf@plt>
    4e7c:	eb 01                	jmp    4e7f <ip4_igmp_decode+0xe8>
    4e7e:	90                   	nop
    4e7f:	90                   	nop
    4e80:	48 8b 45 f8          	mov    rax,QWORD PTR [rbp-0x8]
    4e84:	64 48 2b 04 25 28 00 	sub    rax,QWORD PTR fs:0x28
    4e8b:	00 00 
    4e8d:	74 05                	je     4e94 <ip4_igmp_decode+0xfd>
    4e8f:	e8 ac d8 ff ff       	call   2740 <__stack_chk_fail@plt>
    4e94:	c9                   	leave  
    4e95:	c3                   	ret    

0000000000004e96 <add_ip_addr_or_inc_counter>:
    4e96:	f3 0f 1e fa          	endbr64 
    4e9a:	55                   	push   rbp
    4e9b:	48 89 e5             	mov    rbp,rsp
    4e9e:	48 83 ec 60          	sub    rsp,0x60
    4ea2:	48 89 7d a8          	mov    QWORD PTR [rbp-0x58],rdi
    4ea6:	89 f0                	mov    eax,esi
    4ea8:	89 55 a0             	mov    DWORD PTR [rbp-0x60],edx
    4eab:	88 45 a4             	mov    BYTE PTR [rbp-0x5c],al
    4eae:	64 48 8b 04 25 28 00 	mov    rax,QWORD PTR fs:0x28
    4eb5:	00 00 
    4eb7:	48 89 45 f8          	mov    QWORD PTR [rbp-0x8],rax
    4ebb:	31 c0                	xor    eax,eax
    4ebd:	48 8d 45 e0          	lea    rax,[rbp-0x20]
    4ec1:	ba 08 00 00 00       	mov    edx,0x8
    4ec6:	be 00 00 00 00       	mov    esi,0x0
    4ecb:	48 89 c7             	mov    rdi,rax
    4ece:	e8 bd d5 ff ff       	call   2490 <memset@plt>
    4ed3:	48 8d 45 c0          	lea    rax,[rbp-0x40]
    4ed7:	ba 1c 00 00 00       	mov    edx,0x1c
    4edc:	be 00 00 00 00       	mov    esi,0x0
    4ee1:	48 89 c7             	mov    rdi,rax
    4ee4:	e8 a7 d5 ff ff       	call   2490 <memset@plt>
    4ee9:	48 8b 4d a8          	mov    rcx,QWORD PTR [rbp-0x58]
    4eed:	48 8d 45 e0          	lea    rax,[rbp-0x20]
    4ef1:	ba 18 00 00 00       	mov    edx,0x18
    4ef6:	48 89 ce             	mov    rsi,rcx
    4ef9:	48 89 c7             	mov    rdi,rax
    4efc:	e8 bf d8 ff ff       	call   27c0 <strncpy@plt>
    4f01:	48 8d 45 c0          	lea    rax,[rbp-0x40]
    4f05:	ba 1c 00 00 00       	mov    edx,0x1c
    4f0a:	be 00 00 00 00       	mov    esi,0x0
    4f0f:	48 89 c7             	mov    rdi,rax
    4f12:	e8 79 d5 ff ff       	call   2490 <memset@plt>
    4f17:	48 8d 45 e0          	lea    rax,[rbp-0x20]
    4f1b:	48 8d 55 c0          	lea    rdx,[rbp-0x40]
    4f1f:	48 83 c2 08          	add    rdx,0x8
    4f23:	48 89 c6             	mov    rsi,rax
    4f26:	48 89 d7             	mov    rdi,rdx
    4f29:	e8 42 d8 ff ff       	call   2770 <strcpy@plt>
    4f2e:	0f b6 45 a4          	movzx  eax,BYTE PTR [rbp-0x5c]
    4f32:	88 45 c0             	mov    BYTE PTR [rbp-0x40],al
    4f35:	8b 45 a0             	mov    eax,DWORD PTR [rbp-0x60]
    4f38:	89 45 c4             	mov    DWORD PTR [rbp-0x3c],eax
    4f3b:	48 8d 55 c0          	lea    rdx,[rbp-0x40]
    4f3f:	48 8d 45 b8          	lea    rax,[rbp-0x48]
    4f43:	48 89 d1             	mov    rcx,rdx
    4f46:	48 8d 15 35 00 00 00 	lea    rdx,[rip+0x35]        # 4f82 <verify_ip_addr>
    4f4d:	be 00 00 00 00       	mov    esi,0x0
    4f52:	48 89 c7             	mov    rdi,rax
    4f55:	e8 76 d6 ff ff       	call   25d0 <pthread_create@plt>
    4f5a:	48 8b 45 b8          	mov    rax,QWORD PTR [rbp-0x48]
    4f5e:	be 00 00 00 00       	mov    esi,0x0
    4f63:	48 89 c7             	mov    rdi,rax
    4f66:	e8 05 d5 ff ff       	call   2470 <pthread_join@plt>
    4f6b:	90                   	nop
    4f6c:	48 8b 45 f8          	mov    rax,QWORD PTR [rbp-0x8]
    4f70:	64 48 2b 04 25 28 00 	sub    rax,QWORD PTR fs:0x28
    4f77:	00 00 
    4f79:	74 05                	je     4f80 <add_ip_addr_or_inc_counter+0xea>
    4f7b:	e8 c0 d7 ff ff       	call   2740 <__stack_chk_fail@plt>
    4f80:	c9                   	leave  
    4f81:	c3                   	ret    

0000000000004f82 <verify_ip_addr>:
    4f82:	f3 0f 1e fa          	endbr64 
    4f86:	55                   	push   rbp
    4f87:	48 89 e5             	mov    rbp,rsp
    4f8a:	48 83 ec 30          	sub    rsp,0x30
    4f8e:	48 89 7d d8          	mov    QWORD PTR [rbp-0x28],rdi
    4f92:	48 8b 45 d8          	mov    rax,QWORD PTR [rbp-0x28]
    4f96:	48 89 45 f0          	mov    QWORD PTR [rbp-0x10],rax
    4f9a:	c7 45 e4 00 00 00 00 	mov    DWORD PTR [rbp-0x1c],0x0
    4fa1:	e9 c9 00 00 00       	jmp    506f <verify_ip_addr+0xed>
    4fa6:	8b 45 e4             	mov    eax,DWORD PTR [rbp-0x1c]
    4fa9:	48 63 d0             	movsxd rdx,eax
    4fac:	48 89 d0             	mov    rax,rdx
    4faf:	48 c1 e0 02          	shl    rax,0x2
    4fb3:	48 01 d0             	add    rax,rdx
    4fb6:	48 c1 e0 03          	shl    rax,0x3
    4fba:	48 01 d0             	add    rax,rdx
    4fbd:	48 c1 e0 04          	shl    rax,0x4
    4fc1:	48 8d 15 58 e5 0e 00 	lea    rdx,[rip+0xee558]        # f3520 <watchlist>
    4fc8:	48 01 d0             	add    rax,rdx
    4fcb:	48 8d 50 08          	lea    rdx,[rax+0x8]
    4fcf:	48 8b 45 f0          	mov    rax,QWORD PTR [rbp-0x10]
    4fd3:	48 83 c0 08          	add    rax,0x8
    4fd7:	48 89 d6             	mov    rsi,rdx
    4fda:	48 89 c7             	mov    rdi,rax
    4fdd:	e8 6e d7 ff ff       	call   2750 <strcmp@plt>
    4fe2:	85 c0                	test   eax,eax
    4fe4:	0f 85 81 00 00 00    	jne    506b <verify_ip_addr+0xe9>
    4fea:	8b 45 e4             	mov    eax,DWORD PTR [rbp-0x1c]
    4fed:	48 63 d0             	movsxd rdx,eax
    4ff0:	48 89 d0             	mov    rax,rdx
    4ff3:	48 c1 e0 02          	shl    rax,0x2
    4ff7:	48 01 d0             	add    rax,rdx
    4ffa:	48 c1 e0 03          	shl    rax,0x3
    4ffe:	48 01 d0             	add    rax,rdx
    5001:	48 c1 e0 04          	shl    rax,0x4
    5005:	48 89 c2             	mov    rdx,rax
    5008:	48 8d 05 69 e7 0e 00 	lea    rax,[rip+0xee769]        # f3778 <watchlist+0x258>
    500f:	8b 04 02             	mov    eax,DWORD PTR [rdx+rax*1]
    5012:	8d 48 01             	lea    ecx,[rax+0x1]
    5015:	8b 45 e4             	mov    eax,DWORD PTR [rbp-0x1c]
    5018:	48 63 d0             	movsxd rdx,eax
    501b:	48 89 d0             	mov    rax,rdx
    501e:	48 c1 e0 02          	shl    rax,0x2
    5022:	48 01 d0             	add    rax,rdx
    5025:	48 c1 e0 03          	shl    rax,0x3
    5029:	48 01 d0             	add    rax,rdx
    502c:	48 c1 e0 04          	shl    rax,0x4
    5030:	48 89 c2             	mov    rdx,rax
    5033:	48 8d 05 3e e7 0e 00 	lea    rax,[rip+0xee73e]        # f3778 <watchlist+0x258>
    503a:	89 0c 02             	mov    DWORD PTR [rdx+rax*1],ecx
    503d:	8b 45 e4             	mov    eax,DWORD PTR [rbp-0x1c]
    5040:	48 63 d0             	movsxd rdx,eax
    5043:	48 89 d0             	mov    rax,rdx
    5046:	48 c1 e0 02          	shl    rax,0x2
    504a:	48 01 d0             	add    rax,rdx
    504d:	48 c1 e0 03          	shl    rax,0x3
    5051:	48 01 d0             	add    rax,rdx
    5054:	48 c1 e0 04          	shl    rax,0x4
    5058:	48 8d 15 c1 e4 0e 00 	lea    rdx,[rip+0xee4c1]        # f3520 <watchlist>
    505f:	48 01 d0             	add    rax,rdx
    5062:	48 89 45 e8          	mov    QWORD PTR [rbp-0x18],rax
    5066:	e9 f5 00 00 00       	jmp    5160 <verify_ip_addr+0x1de>
    506b:	83 45 e4 01          	add    DWORD PTR [rbp-0x1c],0x1
    506f:	8b 05 a3 bf 00 00    	mov    eax,DWORD PTR [rip+0xbfa3]        # 11018 <watchlist_num>
    5075:	39 45 e4             	cmp    DWORD PTR [rbp-0x1c],eax
    5078:	0f 8e 28 ff ff ff    	jle    4fa6 <verify_ip_addr+0x24>
    507e:	bf 90 02 00 00       	mov    edi,0x290
    5083:	e8 d8 d4 ff ff       	call   2560 <malloc@plt>
    5088:	48 89 45 f8          	mov    QWORD PTR [rbp-0x8],rax
    508c:	8b 05 86 bf 00 00    	mov    eax,DWORD PTR [rip+0xbf86]        # 11018 <watchlist_num>
    5092:	83 c0 01             	add    eax,0x1
    5095:	89 05 7d bf 00 00    	mov    DWORD PTR [rip+0xbf7d],eax        # 11018 <watchlist_num>
    509b:	8b 05 77 bf 00 00    	mov    eax,DWORD PTR [rip+0xbf77]        # 11018 <watchlist_num>
    50a1:	48 63 d0             	movsxd rdx,eax
    50a4:	48 89 d0             	mov    rax,rdx
    50a7:	48 c1 e0 02          	shl    rax,0x2
    50ab:	48 01 d0             	add    rax,rdx
    50ae:	48 c1 e0 03          	shl    rax,0x3
    50b2:	48 01 d0             	add    rax,rdx
    50b5:	48 c1 e0 04          	shl    rax,0x4
    50b9:	48 89 c1             	mov    rcx,rax
    50bc:	48 8d 05 5d e4 0e 00 	lea    rax,[rip+0xee45d]        # f3520 <watchlist>
    50c3:	48 8b 55 f8          	mov    rdx,QWORD PTR [rbp-0x8]
    50c7:	48 01 c8             	add    rax,rcx
    50ca:	48 89 d6             	mov    rsi,rdx
    50cd:	ba 52 00 00 00       	mov    edx,0x52
    50d2:	48 89 c7             	mov    rdi,rax
    50d5:	48 89 d1             	mov    rcx,rdx
    50d8:	f3 48 a5             	rep movs QWORD PTR es:[rdi],QWORD PTR ds:[rsi]
    50db:	48 8b 45 f8          	mov    rax,QWORD PTR [rbp-0x8]
    50df:	48 83 c0 08          	add    rax,0x8
    50e3:	ba 0f 00 00 00       	mov    edx,0xf
    50e8:	be 00 00 00 00       	mov    esi,0x0
    50ed:	48 89 c7             	mov    rdi,rax
    50f0:	e8 9b d3 ff ff       	call   2490 <memset@plt>
    50f5:	48 8b 45 f0          	mov    rax,QWORD PTR [rbp-0x10]
    50f9:	48 8d 48 08          	lea    rcx,[rax+0x8]
    50fd:	8b 05 15 bf 00 00    	mov    eax,DWORD PTR [rip+0xbf15]        # 11018 <watchlist_num>
    5103:	48 63 d0             	movsxd rdx,eax
    5106:	48 89 d0             	mov    rax,rdx
    5109:	48 c1 e0 02          	shl    rax,0x2
    510d:	48 01 d0             	add    rax,rdx
    5110:	48 c1 e0 03          	shl    rax,0x3
    5114:	48 01 d0             	add    rax,rdx
    5117:	48 c1 e0 04          	shl    rax,0x4
    511b:	48 8d 15 fe e3 0e 00 	lea    rdx,[rip+0xee3fe]        # f3520 <watchlist>
    5122:	48 01 d0             	add    rax,rdx
    5125:	48 83 c0 08          	add    rax,0x8
    5129:	48 89 ce             	mov    rsi,rcx
    512c:	48 89 c7             	mov    rdi,rax
    512f:	e8 3c d6 ff ff       	call   2770 <strcpy@plt>
    5134:	8b 05 de be 00 00    	mov    eax,DWORD PTR [rip+0xbede]        # 11018 <watchlist_num>
    513a:	48 63 d0             	movsxd rdx,eax
    513d:	48 89 d0             	mov    rax,rdx
    5140:	48 c1 e0 02          	shl    rax,0x2
    5144:	48 01 d0             	add    rax,rdx
    5147:	48 c1 e0 03          	shl    rax,0x3
    514b:	48 01 d0             	add    rax,rdx
    514e:	48 c1 e0 04          	shl    rax,0x4
    5152:	48 8d 15 c7 e3 0e 00 	lea    rdx,[rip+0xee3c7]        # f3520 <watchlist>
    5159:	48 01 d0             	add    rax,rdx
    515c:	48 89 45 e8          	mov    QWORD PTR [rbp-0x18],rax
    5160:	48 8b 45 f0          	mov    rax,QWORD PTR [rbp-0x10]
    5164:	0f b6 00             	movzx  eax,BYTE PTR [rax]
    5167:	84 c0                	test   al,al
    5169:	74 36                	je     51a1 <verify_ip_addr+0x21f>
    516b:	48 8b 45 e8          	mov    rax,QWORD PTR [rbp-0x18]
    516f:	8b 80 80 02 00 00    	mov    eax,DWORD PTR [rax+0x280]
    5175:	8d 50 01             	lea    edx,[rax+0x1]
    5178:	48 8b 45 e8          	mov    rax,QWORD PTR [rbp-0x18]
    517c:	89 90 80 02 00 00    	mov    DWORD PTR [rax+0x280],edx
    5182:	48 8b 45 e8          	mov    rax,QWORD PTR [rbp-0x18]
    5186:	8b 90 88 02 00 00    	mov    edx,DWORD PTR [rax+0x288]
    518c:	48 8b 45 f0          	mov    rax,QWORD PTR [rbp-0x10]
    5190:	8b 40 18             	mov    eax,DWORD PTR [rax+0x18]
    5193:	01 c2                	add    edx,eax
    5195:	48 8b 45 e8          	mov    rax,QWORD PTR [rbp-0x18]
    5199:	89 90 88 02 00 00    	mov    DWORD PTR [rax+0x288],edx
    519f:	eb 34                	jmp    51d5 <verify_ip_addr+0x253>
    51a1:	48 8b 45 e8          	mov    rax,QWORD PTR [rbp-0x18]
    51a5:	8b 80 7c 02 00 00    	mov    eax,DWORD PTR [rax+0x27c]
    51ab:	8d 50 01             	lea    edx,[rax+0x1]
    51ae:	48 8b 45 e8          	mov    rax,QWORD PTR [rbp-0x18]
    51b2:	89 90 7c 02 00 00    	mov    DWORD PTR [rax+0x27c],edx
    51b8:	48 8b 45 e8          	mov    rax,QWORD PTR [rbp-0x18]
    51bc:	8b 90 84 02 00 00    	mov    edx,DWORD PTR [rax+0x284]
    51c2:	48 8b 45 f0          	mov    rax,QWORD PTR [rbp-0x10]
    51c6:	8b 40 18             	mov    eax,DWORD PTR [rax+0x18]
    51c9:	01 c2                	add    edx,eax
    51cb:	48 8b 45 e8          	mov    rax,QWORD PTR [rbp-0x18]
    51cf:	89 90 84 02 00 00    	mov    DWORD PTR [rax+0x284],edx
    51d5:	48 8b 45 e8          	mov    rax,QWORD PTR [rbp-0x18]
    51d9:	8b 90 8c 02 00 00    	mov    edx,DWORD PTR [rax+0x28c]
    51df:	48 8b 45 f0          	mov    rax,QWORD PTR [rbp-0x10]
    51e3:	8b 40 18             	mov    eax,DWORD PTR [rax+0x18]
    51e6:	01 c2                	add    edx,eax
    51e8:	48 8b 45 e8          	mov    rax,QWORD PTR [rbp-0x18]
    51ec:	89 90 8c 02 00 00    	mov    DWORD PTR [rax+0x28c],edx
    51f2:	48 8b 45 e8          	mov    rax,QWORD PTR [rbp-0x18]
    51f6:	8b 80 7c 02 00 00    	mov    eax,DWORD PTR [rax+0x27c]
    51fc:	8d 14 00             	lea    edx,[rax+rax*1]
    51ff:	48 8b 45 e8          	mov    rax,QWORD PTR [rbp-0x18]
    5203:	89 90 58 02 00 00    	mov    DWORD PTR [rax+0x258],edx
    5209:	48 8b 45 f0          	mov    rax,QWORD PTR [rbp-0x10]
    520d:	8b 40 04             	mov    eax,DWORD PTR [rax+0x4]
    5210:	83 f8 5e             	cmp    eax,0x5e
    5213:	0f 84 9b 00 00 00    	je     52b4 <verify_ip_addr+0x332>
    5219:	83 f8 5e             	cmp    eax,0x5e
    521c:	0f 8f cf 00 00 00    	jg     52f1 <verify_ip_addr+0x36f>
    5222:	83 f8 5c             	cmp    eax,0x5c
    5225:	74 0a                	je     5231 <verify_ip_addr+0x2af>
    5227:	83 f8 5d             	cmp    eax,0x5d
    522a:	74 48                	je     5274 <verify_ip_addr+0x2f2>
    522c:	e9 c0 00 00 00       	jmp    52f1 <verify_ip_addr+0x36f>
    5231:	48 8b 45 f0          	mov    rax,QWORD PTR [rbp-0x10]
    5235:	0f b6 00             	movzx  eax,BYTE PTR [rax]
    5238:	84 c0                	test   al,al
    523a:	74 1c                	je     5258 <verify_ip_addr+0x2d6>
    523c:	48 8b 45 e8          	mov    rax,QWORD PTR [rbp-0x18]
    5240:	8b 80 5c 02 00 00    	mov    eax,DWORD PTR [rax+0x25c]
    5246:	8d 50 01             	lea    edx,[rax+0x1]
    5249:	48 8b 45 e8          	mov    rax,QWORD PTR [rbp-0x18]
    524d:	89 90 5c 02 00 00    	mov    DWORD PTR [rax+0x25c],edx
    5253:	e9 d5 00 00 00       	jmp    532d <verify_ip_addr+0x3ab>
    5258:	48 8b 45 e8          	mov    rax,QWORD PTR [rbp-0x18]
    525c:	8b 80 68 02 00 00    	mov    eax,DWORD PTR [rax+0x268]
    5262:	8d 50 01             	lea    edx,[rax+0x1]
    5265:	48 8b 45 e8          	mov    rax,QWORD PTR [rbp-0x18]
    5269:	89 90 68 02 00 00    	mov    DWORD PTR [rax+0x268],edx
    526f:	e9 b9 00 00 00       	jmp    532d <verify_ip_addr+0x3ab>
    5274:	48 8b 45 f0          	mov    rax,QWORD PTR [rbp-0x10]
    5278:	0f b6 00             	movzx  eax,BYTE PTR [rax]
    527b:	84 c0                	test   al,al
    527d:	74 1c                	je     529b <verify_ip_addr+0x319>
    527f:	48 8b 45 e8          	mov    rax,QWORD PTR [rbp-0x18]
    5283:	8b 80 60 02 00 00    	mov    eax,DWORD PTR [rax+0x260]
    5289:	8d 50 01             	lea    edx,[rax+0x1]
    528c:	48 8b 45 e8          	mov    rax,QWORD PTR [rbp-0x18]
    5290:	89 90 60 02 00 00    	mov    DWORD PTR [rax+0x260],edx
    5296:	e9 92 00 00 00       	jmp    532d <verify_ip_addr+0x3ab>
    529b:	48 8b 45 e8          	mov    rax,QWORD PTR [rbp-0x18]
    529f:	8b 80 6c 02 00 00    	mov    eax,DWORD PTR [rax+0x26c]
    52a5:	8d 50 01             	lea    edx,[rax+0x1]
    52a8:	48 8b 45 e8          	mov    rax,QWORD PTR [rbp-0x18]
    52ac:	89 90 6c 02 00 00    	mov    DWORD PTR [rax+0x26c],edx
    52b2:	eb 79                	jmp    532d <verify_ip_addr+0x3ab>
    52b4:	48 8b 45 f0          	mov    rax,QWORD PTR [rbp-0x10]
    52b8:	0f b6 00             	movzx  eax,BYTE PTR [rax]
    52bb:	84 c0                	test   al,al
    52bd:	74 19                	je     52d8 <verify_ip_addr+0x356>
    52bf:	48 8b 45 e8          	mov    rax,QWORD PTR [rbp-0x18]
    52c3:	8b 80 64 02 00 00    	mov    eax,DWORD PTR [rax+0x264]
    52c9:	8d 50 01             	lea    edx,[rax+0x1]
    52cc:	48 8b 45 e8          	mov    rax,QWORD PTR [rbp-0x18]
    52d0:	89 90 64 02 00 00    	mov    DWORD PTR [rax+0x264],edx
    52d6:	eb 55                	jmp    532d <verify_ip_addr+0x3ab>
    52d8:	48 8b 45 e8          	mov    rax,QWORD PTR [rbp-0x18]
    52dc:	8b 80 70 02 00 00    	mov    eax,DWORD PTR [rax+0x270]
    52e2:	8d 50 01             	lea    edx,[rax+0x1]
    52e5:	48 8b 45 e8          	mov    rax,QWORD PTR [rbp-0x18]
    52e9:	89 90 70 02 00 00    	mov    DWORD PTR [rax+0x270],edx
    52ef:	eb 3c                	jmp    532d <verify_ip_addr+0x3ab>
    52f1:	48 8b 45 f0          	mov    rax,QWORD PTR [rbp-0x10]
    52f5:	0f b6 00             	movzx  eax,BYTE PTR [rax]
    52f8:	84 c0                	test   al,al
    52fa:	74 19                	je     5315 <verify_ip_addr+0x393>
    52fc:	48 8b 45 e8          	mov    rax,QWORD PTR [rbp-0x18]
    5300:	8b 80 74 02 00 00    	mov    eax,DWORD PTR [rax+0x274]
    5306:	8d 50 01             	lea    edx,[rax+0x1]
    5309:	48 8b 45 e8          	mov    rax,QWORD PTR [rbp-0x18]
    530d:	89 90 74 02 00 00    	mov    DWORD PTR [rax+0x274],edx
    5313:	eb 17                	jmp    532c <verify_ip_addr+0x3aa>
    5315:	48 8b 45 e8          	mov    rax,QWORD PTR [rbp-0x18]
    5319:	8b 80 78 02 00 00    	mov    eax,DWORD PTR [rax+0x278]
    531f:	8d 50 01             	lea    edx,[rax+0x1]
    5322:	48 8b 45 e8          	mov    rax,QWORD PTR [rbp-0x18]
    5326:	89 90 78 02 00 00    	mov    DWORD PTR [rax+0x278],edx
    532c:	90                   	nop
    532d:	b8 01 00 00 00       	mov    eax,0x1
    5332:	c9                   	leave  
    5333:	c3                   	ret    

0000000000005334 <ascii_hexdump>:
    5334:	f3 0f 1e fa          	endbr64 
    5338:	55                   	push   rbp
    5339:	48 89 e5             	mov    rbp,rsp
    533c:	48 83 ec 20          	sub    rsp,0x20
    5340:	48 89 7d e8          	mov    QWORD PTR [rbp-0x18],rdi
    5344:	89 75 e4             	mov    DWORD PTR [rbp-0x1c],esi
    5347:	c7 45 fc 00 00 00 00 	mov    DWORD PTR [rbp-0x4],0x0
    534e:	eb 52                	jmp    53a2 <ascii_hexdump+0x6e>
    5350:	8b 45 fc             	mov    eax,DWORD PTR [rbp-0x4]
    5353:	48 63 d0             	movsxd rdx,eax
    5356:	48 8b 45 e8          	mov    rax,QWORD PTR [rbp-0x18]
    535a:	48 01 d0             	add    rax,rdx
    535d:	0f b6 00             	movzx  eax,BYTE PTR [rax]
    5360:	3c 20                	cmp    al,0x20
    5362:	76 30                	jbe    5394 <ascii_hexdump+0x60>
    5364:	8b 45 fc             	mov    eax,DWORD PTR [rbp-0x4]
    5367:	48 63 d0             	movsxd rdx,eax
    536a:	48 8b 45 e8          	mov    rax,QWORD PTR [rbp-0x18]
    536e:	48 01 d0             	add    rax,rdx
    5371:	0f b6 00             	movzx  eax,BYTE PTR [rax]
    5374:	3c 7e                	cmp    al,0x7e
    5376:	77 1c                	ja     5394 <ascii_hexdump+0x60>
    5378:	8b 45 fc             	mov    eax,DWORD PTR [rbp-0x4]
    537b:	48 63 d0             	movsxd rdx,eax
    537e:	48 8b 45 e8          	mov    rax,QWORD PTR [rbp-0x18]
    5382:	48 01 d0             	add    rax,rdx
    5385:	0f b6 00             	movzx  eax,BYTE PTR [rax]
    5388:	0f b6 c0             	movzx  eax,al
    538b:	89 c7                	mov    edi,eax
    538d:	e8 7e d1 ff ff       	call   2510 <putchar@plt>
    5392:	eb 0a                	jmp    539e <ascii_hexdump+0x6a>
    5394:	bf 2e 00 00 00       	mov    edi,0x2e
    5399:	e8 72 d1 ff ff       	call   2510 <putchar@plt>
    539e:	83 45 fc 01          	add    DWORD PTR [rbp-0x4],0x1
    53a2:	8b 45 fc             	mov    eax,DWORD PTR [rbp-0x4]
    53a5:	3b 45 e4             	cmp    eax,DWORD PTR [rbp-0x1c]
    53a8:	7c a6                	jl     5350 <ascii_hexdump+0x1c>
    53aa:	bf 0a 00 00 00       	mov    edi,0xa
    53af:	e8 5c d1 ff ff       	call   2510 <putchar@plt>
    53b4:	90                   	nop
    53b5:	c9                   	leave  
    53b6:	c3                   	ret    

00000000000053b7 <stdout_alert>:
    53b7:	f3 0f 1e fa          	endbr64 
    53bb:	55                   	push   rbp
    53bc:	48 89 e5             	mov    rbp,rsp
    53bf:	53                   	push   rbx
    53c0:	48 81 ec c8 01 00 00 	sub    rsp,0x1c8
    53c7:	48 89 bd 48 fe ff ff 	mov    QWORD PTR [rbp-0x1b8],rdi
    53ce:	48 89 b5 40 fe ff ff 	mov    QWORD PTR [rbp-0x1c0],rsi
    53d5:	89 95 3c fe ff ff    	mov    DWORD PTR [rbp-0x1c4],edx
    53db:	64 48 8b 04 25 28 00 	mov    rax,QWORD PTR fs:0x28
    53e2:	00 00 
    53e4:	48 89 45 e8          	mov    QWORD PTR [rbp-0x18],rax
    53e8:	31 c0                	xor    eax,eax
    53ea:	bf 00 00 00 00       	mov    edi,0x0
    53ef:	e8 7c d4 ff ff       	call   2870 <time@plt>
    53f4:	48 89 85 50 fe ff ff 	mov    QWORD PTR [rbp-0x1b0],rax
    53fb:	48 8d 85 50 fe ff ff 	lea    rax,[rbp-0x1b0]
    5402:	48 89 c7             	mov    rdi,rax
    5405:	e8 26 d4 ff ff       	call   2830 <localtime@plt>
    540a:	48 8b 08             	mov    rcx,QWORD PTR [rax]
    540d:	48 8b 58 08          	mov    rbx,QWORD PTR [rax+0x8]
    5411:	48 89 8d 60 fe ff ff 	mov    QWORD PTR [rbp-0x1a0],rcx
    5418:	48 89 9d 68 fe ff ff 	mov    QWORD PTR [rbp-0x198],rbx
    541f:	48 8b 48 10          	mov    rcx,QWORD PTR [rax+0x10]
    5423:	48 8b 58 18          	mov    rbx,QWORD PTR [rax+0x18]
    5427:	48 89 8d 70 fe ff ff 	mov    QWORD PTR [rbp-0x190],rcx
    542e:	48 89 9d 78 fe ff ff 	mov    QWORD PTR [rbp-0x188],rbx
    5435:	48 8b 48 20          	mov    rcx,QWORD PTR [rax+0x20]
    5439:	48 8b 58 28          	mov    rbx,QWORD PTR [rax+0x28]
    543d:	48 89 8d 80 fe ff ff 	mov    QWORD PTR [rbp-0x180],rcx
    5444:	48 89 9d 88 fe ff ff 	mov    QWORD PTR [rbp-0x178],rbx
    544b:	48 8b 40 30          	mov    rax,QWORD PTR [rax+0x30]
    544f:	48 89 85 90 fe ff ff 	mov    QWORD PTR [rbp-0x170],rax
    5456:	8b bd 60 fe ff ff    	mov    edi,DWORD PTR [rbp-0x1a0]
    545c:	8b b5 64 fe ff ff    	mov    esi,DWORD PTR [rbp-0x19c]
    5462:	44 8b 8d 68 fe ff ff 	mov    r9d,DWORD PTR [rbp-0x198]
    5469:	44 8b 85 6c fe ff ff 	mov    r8d,DWORD PTR [rbp-0x194]
    5470:	8b 85 70 fe ff ff    	mov    eax,DWORD PTR [rbp-0x190]
    5476:	8d 48 01             	lea    ecx,[rax+0x1]
    5479:	8b 85 74 fe ff ff    	mov    eax,DWORD PTR [rbp-0x18c]
    547f:	8d 90 6c 07 00 00    	lea    edx,[rax+0x76c]
    5485:	48 8d 85 a0 fe ff ff 	lea    rax,[rbp-0x160]
    548c:	57                   	push   rdi
    548d:	56                   	push   rsi
    548e:	48 8d 35 31 76 00 00 	lea    rsi,[rip+0x7631]        # cac6 <_IO_stdin_used+0xac6>
    5495:	48 89 c7             	mov    rdi,rax
    5498:	b8 00 00 00 00       	mov    eax,0x0
    549d:	e8 7e d1 ff ff       	call   2620 <sprintf@plt>
    54a2:	48 83 c4 10          	add    rsp,0x10
    54a6:	48 8b 85 48 fe ff ff 	mov    rax,QWORD PTR [rbp-0x1b8]
    54ad:	8b 40 2c             	mov    eax,DWORD PTR [rax+0x2c]
    54b0:	3d 80 00 00 00       	cmp    eax,0x80
    54b5:	75 4e                	jne    5505 <stdout_alert+0x14e>
    54b7:	48 8b 85 48 fe ff ff 	mov    rax,QWORD PTR [rbp-0x1b8]
    54be:	48 8b 78 10          	mov    rdi,QWORD PTR [rax+0x10]
    54c2:	48 8b 85 48 fe ff ff 	mov    rax,QWORD PTR [rbp-0x1b8]
    54c9:	48 8b 70 08          	mov    rsi,QWORD PTR [rax+0x8]
    54cd:	48 8b 85 40 fe ff ff 	mov    rax,QWORD PTR [rbp-0x1c0]
    54d4:	48 8d 88 4c 01 00 00 	lea    rcx,[rax+0x14c]
    54db:	48 8d 95 a0 fe ff ff 	lea    rdx,[rbp-0x160]
    54e2:	48 8d 85 e0 fe ff ff 	lea    rax,[rbp-0x120]
    54e9:	49 89 f9             	mov    r9,rdi
    54ec:	49 89 f0             	mov    r8,rsi
    54ef:	48 8d 35 ec 75 00 00 	lea    rsi,[rip+0x75ec]        # cae2 <_IO_stdin_used+0xae2>
    54f6:	48 89 c7             	mov    rdi,rax
    54f9:	b8 00 00 00 00       	mov    eax,0x0
    54fe:	e8 1d d1 ff ff       	call   2620 <sprintf@plt>
    5503:	eb 61                	jmp    5566 <stdout_alert+0x1af>
    5505:	48 8b 85 48 fe ff ff 	mov    rax,QWORD PTR [rbp-0x1b8]
    550c:	8b 78 28             	mov    edi,DWORD PTR [rax+0x28]
    550f:	48 8b 85 48 fe ff ff 	mov    rax,QWORD PTR [rbp-0x1b8]
    5516:	48 8b 70 10          	mov    rsi,QWORD PTR [rax+0x10]
    551a:	48 8b 85 48 fe ff ff 	mov    rax,QWORD PTR [rbp-0x1b8]
    5521:	44 8b 48 24          	mov    r9d,DWORD PTR [rax+0x24]
    5525:	48 8b 85 48 fe ff ff 	mov    rax,QWORD PTR [rbp-0x1b8]
    552c:	4c 8b 40 08          	mov    r8,QWORD PTR [rax+0x8]
    5530:	48 8b 85 40 fe ff ff 	mov    rax,QWORD PTR [rbp-0x1c0]
    5537:	48 8d 88 4c 01 00 00 	lea    rcx,[rax+0x14c]
    553e:	48 8d 95 a0 fe ff ff 	lea    rdx,[rbp-0x160]
    5545:	48 8d 85 e0 fe ff ff 	lea    rax,[rbp-0x120]
    554c:	57                   	push   rdi
    554d:	56                   	push   rsi
    554e:	48 8d 35 9d 75 00 00 	lea    rsi,[rip+0x759d]        # caf2 <_IO_stdin_used+0xaf2>
    5555:	48 89 c7             	mov    rdi,rax
    5558:	b8 00 00 00 00       	mov    eax,0x0
    555d:	e8 be d0 ff ff       	call   2620 <sprintf@plt>
    5562:	48 83 c4 10          	add    rsp,0x10
    5566:	48 8d 85 e0 fe ff ff 	lea    rax,[rbp-0x120]
    556d:	48 89 c6             	mov    rsi,rax
    5570:	48 8d 3d 91 75 00 00 	lea    rdi,[rip+0x7591]        # cb08 <_IO_stdin_used+0xb08>
    5577:	b8 00 00 00 00       	mov    eax,0x0
    557c:	e8 ff ce ff ff       	call   2480 <printf@plt>
    5581:	48 8b 05 a8 ba 00 00 	mov    rax,QWORD PTR [rip+0xbaa8]        # 11030 <def_log_file>
    5588:	48 8d 35 7c 75 00 00 	lea    rsi,[rip+0x757c]        # cb0b <_IO_stdin_used+0xb0b>
    558f:	48 89 c7             	mov    rdi,rax
    5592:	e8 d9 cf ff ff       	call   2570 <fopen@plt>
    5597:	48 89 85 58 fe ff ff 	mov    QWORD PTR [rbp-0x1a8],rax
    559e:	48 8b 95 58 fe ff ff 	mov    rdx,QWORD PTR [rbp-0x1a8]
    55a5:	48 8d 85 e0 fe ff ff 	lea    rax,[rbp-0x120]
    55ac:	48 89 d6             	mov    rsi,rdx
    55af:	48 89 c7             	mov    rdi,rax
    55b2:	e8 d9 d0 ff ff       	call   2690 <fputs@plt>
    55b7:	48 8b 85 58 fe ff ff 	mov    rax,QWORD PTR [rbp-0x1a8]
    55be:	48 89 c7             	mov    rdi,rax
    55c1:	e8 ea d1 ff ff       	call   27b0 <fclose@plt>
    55c6:	90                   	nop
    55c7:	48 8b 45 e8          	mov    rax,QWORD PTR [rbp-0x18]
    55cb:	64 48 2b 04 25 28 00 	sub    rax,QWORD PTR fs:0x28
    55d2:	00 00 
    55d4:	74 05                	je     55db <stdout_alert+0x224>
    55d6:	e8 65 d1 ff ff       	call   2740 <__stack_chk_fail@plt>
    55db:	48 8b 5d f8          	mov    rbx,QWORD PTR [rbp-0x8]
    55df:	c9                   	leave  
    55e0:	c3                   	ret    

00000000000055e1 <str_match_parser>:
    55e1:	f3 0f 1e fa          	endbr64 
    55e5:	55                   	push   rbp
    55e6:	48 89 e5             	mov    rbp,rsp
    55e9:	53                   	push   rbx
    55ea:	48 83 ec 48          	sub    rsp,0x48
    55ee:	48 89 7d b8          	mov    QWORD PTR [rbp-0x48],rdi
    55f2:	48 89 75 b0          	mov    QWORD PTR [rbp-0x50],rsi
    55f6:	64 48 8b 04 25 28 00 	mov    rax,QWORD PTR fs:0x28
    55fd:	00 00 
    55ff:	48 89 45 e8          	mov    QWORD PTR [rbp-0x18],rax
    5603:	31 c0                	xor    eax,eax
    5605:	48 89 e0             	mov    rax,rsp
    5608:	48 89 c3             	mov    rbx,rax
    560b:	48 8b 45 b8          	mov    rax,QWORD PTR [rbp-0x48]
    560f:	8b 40 30             	mov    eax,DWORD PTR [rax+0x30]
    5612:	85 c0                	test   eax,eax
    5614:	75 0a                	jne    5620 <str_match_parser+0x3f>
    5616:	b8 00 00 00 00       	mov    eax,0x0
    561b:	e9 e1 01 00 00       	jmp    5801 <str_match_parser+0x220>
    5620:	48 8b 45 b8          	mov    rax,QWORD PTR [rbp-0x48]
    5624:	8b 40 30             	mov    eax,DWORD PTR [rax+0x30]
    5627:	83 c0 01             	add    eax,0x1
    562a:	01 c0                	add    eax,eax
    562c:	48 98                	cdqe   
    562e:	48 83 e8 01          	sub    rax,0x1
    5632:	48 89 45 d8          	mov    QWORD PTR [rbp-0x28],rax
    5636:	48 8b 45 b8          	mov    rax,QWORD PTR [rbp-0x48]
    563a:	8b 40 30             	mov    eax,DWORD PTR [rax+0x30]
    563d:	83 c0 01             	add    eax,0x1
    5640:	01 c0                	add    eax,eax
    5642:	48 98                	cdqe   
    5644:	49 89 c2             	mov    r10,rax
    5647:	41 bb 00 00 00 00    	mov    r11d,0x0
    564d:	48 8b 45 b8          	mov    rax,QWORD PTR [rbp-0x48]
    5651:	8b 40 30             	mov    eax,DWORD PTR [rax+0x30]
    5654:	83 c0 01             	add    eax,0x1
    5657:	01 c0                	add    eax,eax
    5659:	48 98                	cdqe   
    565b:	49 89 c0             	mov    r8,rax
    565e:	41 b9 00 00 00 00    	mov    r9d,0x0
    5664:	48 8b 45 b8          	mov    rax,QWORD PTR [rbp-0x48]
    5668:	8b 40 30             	mov    eax,DWORD PTR [rax+0x30]
    566b:	83 c0 01             	add    eax,0x1
    566e:	01 c0                	add    eax,eax
    5670:	48 98                	cdqe   
    5672:	ba 10 00 00 00       	mov    edx,0x10
    5677:	48 83 ea 01          	sub    rdx,0x1
    567b:	48 01 d0             	add    rax,rdx
    567e:	be 10 00 00 00       	mov    esi,0x10
    5683:	ba 00 00 00 00       	mov    edx,0x0
    5688:	48 f7 f6             	div    rsi
    568b:	48 6b c0 10          	imul   rax,rax,0x10
    568f:	48 89 c1             	mov    rcx,rax
    5692:	48 81 e1 00 f0 ff ff 	and    rcx,0xfffffffffffff000
    5699:	48 89 e2             	mov    rdx,rsp
    569c:	48 29 ca             	sub    rdx,rcx
    569f:	48 39 d4             	cmp    rsp,rdx
    56a2:	74 12                	je     56b6 <str_match_parser+0xd5>
    56a4:	48 81 ec 00 10 00 00 	sub    rsp,0x1000
    56ab:	48 83 8c 24 f8 0f 00 	or     QWORD PTR [rsp+0xff8],0x0
    56b2:	00 00 
    56b4:	eb e9                	jmp    569f <str_match_parser+0xbe>
    56b6:	48 89 c2             	mov    rdx,rax
    56b9:	81 e2 ff 0f 00 00    	and    edx,0xfff
    56bf:	48 29 d4             	sub    rsp,rdx
    56c2:	48 89 c2             	mov    rdx,rax
    56c5:	81 e2 ff 0f 00 00    	and    edx,0xfff
    56cb:	48 85 d2             	test   rdx,rdx
    56ce:	74 10                	je     56e0 <str_match_parser+0xff>
    56d0:	25 ff 0f 00 00       	and    eax,0xfff
    56d5:	48 83 e8 08          	sub    rax,0x8
    56d9:	48 01 e0             	add    rax,rsp
    56dc:	48 83 08 00          	or     QWORD PTR [rax],0x0
    56e0:	48 89 e0             	mov    rax,rsp
    56e3:	48 83 c0 00          	add    rax,0x0
    56e7:	48 89 45 e0          	mov    QWORD PTR [rbp-0x20],rax
    56eb:	48 8b 45 b8          	mov    rax,QWORD PTR [rbp-0x48]
    56ef:	8b 40 30             	mov    eax,DWORD PTR [rax+0x30]
    56f2:	83 c0 01             	add    eax,0x1
    56f5:	01 c0                	add    eax,eax
    56f7:	48 63 d0             	movsxd rdx,eax
    56fa:	48 8b 45 e0          	mov    rax,QWORD PTR [rbp-0x20]
    56fe:	be 00 00 00 00       	mov    esi,0x0
    5703:	48 89 c7             	mov    rdi,rax
    5706:	e8 85 cd ff ff       	call   2490 <memset@plt>
    570b:	c7 45 d4 00 00 00 00 	mov    DWORD PTR [rbp-0x2c],0x0
    5712:	48 8b 45 b0          	mov    rax,QWORD PTR [rbp-0x50]
    5716:	8b 80 4c 03 00 00    	mov    eax,DWORD PTR [rax+0x34c]
    571c:	85 c0                	test   eax,eax
    571e:	74 5f                	je     577f <str_match_parser+0x19e>
    5720:	48 8b 45 b0          	mov    rax,QWORD PTR [rbp-0x50]
    5724:	8b 40 14             	mov    eax,DWORD PTR [rax+0x14]
    5727:	89 45 d0             	mov    DWORD PTR [rbp-0x30],eax
    572a:	eb 42                	jmp    576e <str_match_parser+0x18d>
    572c:	48 8b 45 b8          	mov    rax,QWORD PTR [rbp-0x48]
    5730:	48 8b 10             	mov    rdx,QWORD PTR [rax]
    5733:	8b 45 d0             	mov    eax,DWORD PTR [rbp-0x30]
    5736:	48 98                	cdqe   
    5738:	48 01 d0             	add    rax,rdx
    573b:	0f b6 00             	movzx  eax,BYTE PTR [rax]
    573e:	0f b6 d0             	movzx  edx,al
    5741:	8b 45 d4             	mov    eax,DWORD PTR [rbp-0x2c]
    5744:	8d 48 01             	lea    ecx,[rax+0x1]
    5747:	89 4d d4             	mov    DWORD PTR [rbp-0x2c],ecx
    574a:	01 c0                	add    eax,eax
    574c:	48 63 c8             	movsxd rcx,eax
    574f:	48 8b 45 e0          	mov    rax,QWORD PTR [rbp-0x20]
    5753:	48 01 c8             	add    rax,rcx
    5756:	48 8d 35 b0 73 00 00 	lea    rsi,[rip+0x73b0]        # cb0d <_IO_stdin_used+0xb0d>
    575d:	48 89 c7             	mov    rdi,rax
    5760:	b8 00 00 00 00       	mov    eax,0x0
    5765:	e8 b6 ce ff ff       	call   2620 <sprintf@plt>
    576a:	83 45 d0 01          	add    DWORD PTR [rbp-0x30],0x1
    576e:	48 8b 45 b0          	mov    rax,QWORD PTR [rbp-0x50]
    5772:	8b 80 4c 03 00 00    	mov    eax,DWORD PTR [rax+0x34c]
    5778:	39 45 d0             	cmp    DWORD PTR [rbp-0x30],eax
    577b:	7c af                	jl     572c <str_match_parser+0x14b>
    577d:	eb 5a                	jmp    57d9 <str_match_parser+0x1f8>
    577f:	48 8b 45 b0          	mov    rax,QWORD PTR [rbp-0x50]
    5783:	8b 40 14             	mov    eax,DWORD PTR [rax+0x14]
    5786:	89 45 cc             	mov    DWORD PTR [rbp-0x34],eax
    5789:	eb 42                	jmp    57cd <str_match_parser+0x1ec>
    578b:	48 8b 45 b8          	mov    rax,QWORD PTR [rbp-0x48]
    578f:	48 8b 10             	mov    rdx,QWORD PTR [rax]
    5792:	8b 45 cc             	mov    eax,DWORD PTR [rbp-0x34]
    5795:	48 98                	cdqe   
    5797:	48 01 d0             	add    rax,rdx
    579a:	0f b6 00             	movzx  eax,BYTE PTR [rax]
    579d:	0f b6 d0             	movzx  edx,al
    57a0:	8b 45 d4             	mov    eax,DWORD PTR [rbp-0x2c]
    57a3:	8d 48 01             	lea    ecx,[rax+0x1]
    57a6:	89 4d d4             	mov    DWORD PTR [rbp-0x2c],ecx
    57a9:	01 c0                	add    eax,eax
    57ab:	48 63 c8             	movsxd rcx,eax
    57ae:	48 8b 45 e0          	mov    rax,QWORD PTR [rbp-0x20]
    57b2:	48 01 c8             	add    rax,rcx
    57b5:	48 8d 35 51 73 00 00 	lea    rsi,[rip+0x7351]        # cb0d <_IO_stdin_used+0xb0d>
    57bc:	48 89 c7             	mov    rdi,rax
    57bf:	b8 00 00 00 00       	mov    eax,0x0
    57c4:	e8 57 ce ff ff       	call   2620 <sprintf@plt>
    57c9:	83 45 cc 01          	add    DWORD PTR [rbp-0x34],0x1
    57cd:	48 8b 45 b8          	mov    rax,QWORD PTR [rbp-0x48]
    57d1:	8b 40 30             	mov    eax,DWORD PTR [rax+0x30]
    57d4:	39 45 cc             	cmp    DWORD PTR [rbp-0x34],eax
    57d7:	7c b2                	jl     578b <str_match_parser+0x1aa>
    57d9:	48 8b 45 b0          	mov    rax,QWORD PTR [rbp-0x50]
    57dd:	48 8d 50 40          	lea    rdx,[rax+0x40]
    57e1:	48 8b 45 e0          	mov    rax,QWORD PTR [rbp-0x20]
    57e5:	48 89 d6             	mov    rsi,rdx
    57e8:	48 89 c7             	mov    rdi,rax
    57eb:	e8 80 ce ff ff       	call   2670 <strstr@plt>
    57f0:	48 85 c0             	test   rax,rax
    57f3:	74 07                	je     57fc <str_match_parser+0x21b>
    57f5:	b8 01 00 00 00       	mov    eax,0x1
    57fa:	eb 05                	jmp    5801 <str_match_parser+0x220>
    57fc:	b8 00 00 00 00       	mov    eax,0x0
    5801:	48 89 dc             	mov    rsp,rbx
    5804:	48 8b 5d e8          	mov    rbx,QWORD PTR [rbp-0x18]
    5808:	64 48 2b 1c 25 28 00 	sub    rbx,QWORD PTR fs:0x28
    580f:	00 00 
    5811:	74 05                	je     5818 <str_match_parser+0x237>
    5813:	e8 28 cf ff ff       	call   2740 <__stack_chk_fail@plt>
    5818:	48 8b 5d f8          	mov    rbx,QWORD PTR [rbp-0x8]
    581c:	c9                   	leave  
    581d:	c3                   	ret    

000000000000581e <is_blocked_ipv4>:
    581e:	f3 0f 1e fa          	endbr64 
    5822:	55                   	push   rbp
    5823:	48 89 e5             	mov    rbp,rsp
    5826:	48 83 ec 20          	sub    rsp,0x20
    582a:	48 89 7d e8          	mov    QWORD PTR [rbp-0x18],rdi
    582e:	c7 45 fc 00 00 00 00 	mov    DWORD PTR [rbp-0x4],0x0
    5835:	eb 3b                	jmp    5872 <is_blocked_ipv4+0x54>
    5837:	8b 45 fc             	mov    eax,DWORD PTR [rbp-0x4]
    583a:	48 63 d0             	movsxd rdx,eax
    583d:	48 89 d0             	mov    rax,rdx
    5840:	48 c1 e0 03          	shl    rax,0x3
    5844:	48 01 d0             	add    rax,rdx
    5847:	48 01 c0             	add    rax,rax
    584a:	48 8d 15 8f da 0e 00 	lea    rdx,[rip+0xeda8f]        # f32e0 <blocked_ipv4_addrs>
    5851:	48 01 c2             	add    rdx,rax
    5854:	48 8b 45 e8          	mov    rax,QWORD PTR [rbp-0x18]
    5858:	48 89 d6             	mov    rsi,rdx
    585b:	48 89 c7             	mov    rdi,rax
    585e:	e8 ed ce ff ff       	call   2750 <strcmp@plt>
    5863:	85 c0                	test   eax,eax
    5865:	75 07                	jne    586e <is_blocked_ipv4+0x50>
    5867:	b8 01 00 00 00       	mov    eax,0x1
    586c:	eb 14                	jmp    5882 <is_blocked_ipv4+0x64>
    586e:	83 45 fc 01          	add    DWORD PTR [rbp-0x4],0x1
    5872:	8b 05 98 b7 00 00    	mov    eax,DWORD PTR [rip+0xb798]        # 11010 <blk_ipv4_len>
    5878:	39 45 fc             	cmp    DWORD PTR [rbp-0x4],eax
    587b:	7e ba                	jle    5837 <is_blocked_ipv4+0x19>
    587d:	b8 00 00 00 00       	mov    eax,0x0
    5882:	c9                   	leave  
    5883:	c3                   	ret    

0000000000005884 <none>:
    5884:	f3 0f 1e fa          	endbr64 
    5888:	55                   	push   rbp
    5889:	48 89 e5             	mov    rbp,rsp
    588c:	48 89 7d f8          	mov    QWORD PTR [rbp-0x8],rdi
    5890:	48 89 75 f0          	mov    QWORD PTR [rbp-0x10],rsi
    5894:	b8 01 00 00 00       	mov    eax,0x1
    5899:	5d                   	pop    rbp
    589a:	c3                   	ret    

000000000000589b <pcre_match>:
    589b:	f3 0f 1e fa          	endbr64 
    589f:	55                   	push   rbp
    58a0:	48 89 e5             	mov    rbp,rsp
    58a3:	48 83 ec 10          	sub    rsp,0x10
    58a7:	48 89 7d f8          	mov    QWORD PTR [rbp-0x8],rdi
    58ab:	48 89 75 f0          	mov    QWORD PTR [rbp-0x10],rsi
    58af:	48 8b 45 f8          	mov    rax,QWORD PTR [rbp-0x8]
    58b3:	48 8b 00             	mov    rax,QWORD PTR [rax]
    58b6:	48 8b 55 f0          	mov    rdx,QWORD PTR [rbp-0x10]
    58ba:	48 8d ba d0 01 00 00 	lea    rdi,[rdx+0x1d0]
    58c1:	41 b8 00 00 00 00    	mov    r8d,0x0
    58c7:	b9 00 00 00 00       	mov    ecx,0x0
    58cc:	ba 00 00 00 00       	mov    edx,0x0
    58d1:	48 89 c6             	mov    rsi,rax
    58d4:	e8 a7 cc ff ff       	call   2580 <regexec@plt>
    58d9:	83 f8 01             	cmp    eax,0x1
    58dc:	75 07                	jne    58e5 <pcre_match+0x4a>
    58de:	b8 00 00 00 00       	mov    eax,0x0
    58e3:	eb 05                	jmp    58ea <pcre_match+0x4f>
    58e5:	b8 01 00 00 00       	mov    eax,0x1
    58ea:	c9                   	leave  
    58eb:	c3                   	ret    

00000000000058ec <rule_library_parser>:
    58ec:	f3 0f 1e fa          	endbr64 
    58f0:	55                   	push   rbp
    58f1:	48 89 e5             	mov    rbp,rsp
    58f4:	53                   	push   rbx
    58f5:	48 83 ec 48          	sub    rsp,0x48
    58f9:	48 89 7d b8          	mov    QWORD PTR [rbp-0x48],rdi
    58fd:	64 48 8b 04 25 28 00 	mov    rax,QWORD PTR fs:0x28
    5904:	00 00 
    5906:	48 89 45 e8          	mov    QWORD PTR [rbp-0x18],rax
    590a:	31 c0                	xor    eax,eax
    590c:	48 8b 45 b8          	mov    rax,QWORD PTR [rbp-0x48]
    5910:	48 8d 35 01 72 00 00 	lea    rsi,[rip+0x7201]        # cb18 <_IO_stdin_used+0xb18>
    5917:	48 89 c7             	mov    rdi,rax
    591a:	e8 51 cc ff ff       	call   2570 <fopen@plt>
    591f:	48 89 45 d8          	mov    QWORD PTR [rbp-0x28],rax
    5923:	48 83 7d d8 00       	cmp    QWORD PTR [rbp-0x28],0x0
    5928:	75 22                	jne    594c <rule_library_parser+0x60>
    592a:	48 8b 45 b8          	mov    rax,QWORD PTR [rbp-0x48]
    592e:	48 89 c6             	mov    rsi,rax
    5931:	48 8d 3d e8 71 00 00 	lea    rdi,[rip+0x71e8]        # cb20 <_IO_stdin_used+0xb20>
    5938:	b8 00 00 00 00       	mov    eax,0x0
    593d:	e8 3e cb ff ff       	call   2480 <printf@plt>
    5942:	bf 01 00 00 00       	mov    edi,0x1
    5947:	e8 b4 cb ff ff       	call   2500 <exit@plt>
    594c:	48 c7 45 c8 00 00 00 	mov    QWORD PTR [rbp-0x38],0x0
    5953:	00 
    5954:	48 c7 45 d0 00 00 00 	mov    QWORD PTR [rbp-0x30],0x0
    595b:	00 
    595c:	e9 70 05 00 00       	jmp    5ed1 <rule_library_parser+0x5e5>
    5961:	48 8b 5d d0          	mov    rbx,QWORD PTR [rbp-0x30]
    5965:	48 8b 45 d0          	mov    rax,QWORD PTR [rbp-0x30]
    5969:	48 8d 35 d6 71 00 00 	lea    rsi,[rip+0x71d6]        # cb46 <_IO_stdin_used+0xb46>
    5970:	48 89 c7             	mov    rdi,rax
    5973:	e8 58 ce ff ff       	call   27d0 <strcspn@plt>
    5978:	48 01 d8             	add    rax,rbx
    597b:	c6 00 00             	mov    BYTE PTR [rax],0x0
    597e:	48 8b 45 d0          	mov    rax,QWORD PTR [rbp-0x30]
    5982:	48 89 c7             	mov    rdi,rax
    5985:	e8 b9 05 00 00       	call   5f43 <is_comment>
    598a:	84 c0                	test   al,al
    598c:	74 05                	je     5993 <rule_library_parser+0xa7>
    598e:	e9 3e 05 00 00       	jmp    5ed1 <rule_library_parser+0x5e5>
    5993:	48 8b 45 d0          	mov    rax,QWORD PTR [rbp-0x30]
    5997:	ba 1a 00 00 00       	mov    edx,0x1a
    599c:	48 8d 35 a5 71 00 00 	lea    rsi,[rip+0x71a5]        # cb48 <_IO_stdin_used+0xb48>
    59a3:	48 89 c7             	mov    rdi,rax
    59a6:	e8 a5 cb ff ff       	call   2550 <strncmp@plt>
    59ab:	85 c0                	test   eax,eax
    59ad:	75 39                	jne    59e8 <rule_library_parser+0xfc>
    59af:	48 8b 45 d0          	mov    rax,QWORD PTR [rbp-0x30]
    59b3:	48 83 c0 1a          	add    rax,0x1a
    59b7:	48 8d 35 a5 71 00 00 	lea    rsi,[rip+0x71a5]        # cb63 <_IO_stdin_used+0xb63>
    59be:	48 89 c7             	mov    rdi,rax
    59c1:	e8 8a cd ff ff       	call   2750 <strcmp@plt>
    59c6:	85 c0                	test   eax,eax
    59c8:	75 0f                	jne    59d9 <rule_library_parser+0xed>
    59ca:	c7 05 b0 b6 00 00 01 	mov    DWORD PTR [rip+0xb6b0],0x1        # 11084 <strict_icmp_timestamp_req>
    59d1:	00 00 00 
    59d4:	e9 e2 04 00 00       	jmp    5ebb <rule_library_parser+0x5cf>
    59d9:	c7 05 a1 b6 00 00 00 	mov    DWORD PTR [rip+0xb6a1],0x0        # 11084 <strict_icmp_timestamp_req>
    59e0:	00 00 00 
    59e3:	e9 d3 04 00 00       	jmp    5ebb <rule_library_parser+0x5cf>
    59e8:	48 8b 45 d0          	mov    rax,QWORD PTR [rbp-0x30]
    59ec:	ba 1d 00 00 00       	mov    edx,0x1d
    59f1:	48 8d 35 6f 71 00 00 	lea    rsi,[rip+0x716f]        # cb67 <_IO_stdin_used+0xb67>
    59f8:	48 89 c7             	mov    rdi,rax
    59fb:	e8 50 cb ff ff       	call   2550 <strncmp@plt>
    5a00:	85 c0                	test   eax,eax
    5a02:	75 39                	jne    5a3d <rule_library_parser+0x151>
    5a04:	48 8b 45 d0          	mov    rax,QWORD PTR [rbp-0x30]
    5a08:	48 83 c0 1d          	add    rax,0x1d
    5a0c:	48 8d 35 50 71 00 00 	lea    rsi,[rip+0x7150]        # cb63 <_IO_stdin_used+0xb63>
    5a13:	48 89 c7             	mov    rdi,rax
    5a16:	e8 35 cd ff ff       	call   2750 <strcmp@plt>
    5a1b:	85 c0                	test   eax,eax
    5a1d:	75 0f                	jne    5a2e <rule_library_parser+0x142>
    5a1f:	c7 05 5f b6 00 00 01 	mov    DWORD PTR [rip+0xb65f],0x1        # 11088 <strict_nmap_host_alive_check>
    5a26:	00 00 00 
    5a29:	e9 8d 04 00 00       	jmp    5ebb <rule_library_parser+0x5cf>
    5a2e:	c7 05 50 b6 00 00 00 	mov    DWORD PTR [rip+0xb650],0x0        # 11088 <strict_nmap_host_alive_check>
    5a35:	00 00 00 
    5a38:	e9 7e 04 00 00       	jmp    5ebb <rule_library_parser+0x5cf>
    5a3d:	48 8b 45 d0          	mov    rax,QWORD PTR [rbp-0x30]
    5a41:	ba 17 00 00 00       	mov    edx,0x17
    5a46:	48 8d 35 38 71 00 00 	lea    rsi,[rip+0x7138]        # cb85 <_IO_stdin_used+0xb85>
    5a4d:	48 89 c7             	mov    rdi,rax
    5a50:	e8 fb ca ff ff       	call   2550 <strncmp@plt>
    5a55:	85 c0                	test   eax,eax
    5a57:	75 43                	jne    5a9c <rule_library_parser+0x1b0>
    5a59:	48 8b 45 d0          	mov    rax,QWORD PTR [rbp-0x30]
    5a5d:	48 89 c7             	mov    rdi,rax
    5a60:	e8 9b cb ff ff       	call   2600 <strlen@plt>
    5a65:	48 83 f8 17          	cmp    rax,0x17
    5a69:	77 16                	ja     5a81 <rule_library_parser+0x195>
    5a6b:	48 8d 3d 2b 71 00 00 	lea    rdi,[rip+0x712b]        # cb9d <_IO_stdin_used+0xb9d>
    5a72:	e8 69 ca ff ff       	call   24e0 <puts@plt>
    5a77:	bf 01 00 00 00       	mov    edi,0x1
    5a7c:	e8 7f ca ff ff       	call   2500 <exit@plt>
    5a81:	48 8b 45 d0          	mov    rax,QWORD PTR [rbp-0x30]
    5a85:	48 83 c0 17          	add    rax,0x17
    5a89:	48 89 c7             	mov    rdi,rax
    5a8c:	e8 2f cc ff ff       	call   26c0 <atoi@plt>
    5a91:	89 05 c9 44 10 00    	mov    DWORD PTR [rip+0x1044c9],eax        # 109f60 <clean_delay_pkts>
    5a97:	e9 1f 04 00 00       	jmp    5ebb <rule_library_parser+0x5cf>
    5a9c:	48 8b 45 d0          	mov    rax,QWORD PTR [rbp-0x30]
    5aa0:	ba 18 00 00 00       	mov    edx,0x18
    5aa5:	48 8d 35 0b 71 00 00 	lea    rsi,[rip+0x710b]        # cbb7 <_IO_stdin_used+0xbb7>
    5aac:	48 89 c7             	mov    rdi,rax
    5aaf:	e8 9c ca ff ff       	call   2550 <strncmp@plt>
    5ab4:	85 c0                	test   eax,eax
    5ab6:	75 46                	jne    5afe <rule_library_parser+0x212>
    5ab8:	48 8b 45 d0          	mov    rax,QWORD PTR [rbp-0x30]
    5abc:	48 89 c7             	mov    rdi,rax
    5abf:	e8 3c cb ff ff       	call   2600 <strlen@plt>
    5ac4:	48 83 f8 18          	cmp    rax,0x18
    5ac8:	75 16                	jne    5ae0 <rule_library_parser+0x1f4>
    5aca:	48 8d 3d cc 70 00 00 	lea    rdi,[rip+0x70cc]        # cb9d <_IO_stdin_used+0xb9d>
    5ad1:	e8 0a ca ff ff       	call   24e0 <puts@plt>
    5ad6:	bf 01 00 00 00       	mov    edi,0x1
    5adb:	e8 20 ca ff ff       	call   2500 <exit@plt>
    5ae0:	48 8b 45 d0          	mov    rax,QWORD PTR [rbp-0x30]
    5ae4:	48 83 c0 18          	add    rax,0x18
    5ae8:	48 89 c7             	mov    rdi,rax
    5aeb:	e8 d0 cb ff ff       	call   26c0 <atoi@plt>
    5af0:	48 98                	cdqe   
    5af2:	48 89 05 bf b7 00 00 	mov    QWORD PTR [rip+0xb7bf],rax        # 112b8 <clean_delay>
    5af9:	e9 bd 03 00 00       	jmp    5ebb <rule_library_parser+0x5cf>
    5afe:	48 8b 45 d0          	mov    rax,QWORD PTR [rbp-0x30]
    5b02:	ba 0b 00 00 00       	mov    edx,0xb
    5b07:	48 8d 35 c2 70 00 00 	lea    rsi,[rip+0x70c2]        # cbd0 <_IO_stdin_used+0xbd0>
    5b0e:	48 89 c7             	mov    rdi,rax
    5b11:	e8 3a ca ff ff       	call   2550 <strncmp@plt>
    5b16:	85 c0                	test   eax,eax
    5b18:	75 33                	jne    5b4d <rule_library_parser+0x261>
    5b1a:	48 8b 45 d0          	mov    rax,QWORD PTR [rbp-0x30]
    5b1e:	48 83 c0 0b          	add    rax,0xb
    5b22:	48 8d 35 3a 70 00 00 	lea    rsi,[rip+0x703a]        # cb63 <_IO_stdin_used+0xb63>
    5b29:	48 89 c7             	mov    rdi,rax
    5b2c:	e8 1f cc ff ff       	call   2750 <strcmp@plt>
    5b31:	85 c0                	test   eax,eax
    5b33:	75 0c                	jne    5b41 <rule_library_parser+0x255>
    5b35:	c6 05 e5 43 10 00 01 	mov    BYTE PTR [rip+0x1043e5],0x1        # 109f21 <use_sqlite>
    5b3c:	e9 7a 03 00 00       	jmp    5ebb <rule_library_parser+0x5cf>
    5b41:	c6 05 d9 43 10 00 00 	mov    BYTE PTR [rip+0x1043d9],0x0        # 109f21 <use_sqlite>
    5b48:	e9 6e 03 00 00       	jmp    5ebb <rule_library_parser+0x5cf>
    5b4d:	48 8b 45 d0          	mov    rax,QWORD PTR [rbp-0x30]
    5b51:	ba 15 00 00 00       	mov    edx,0x15
    5b56:	48 8d 35 7f 70 00 00 	lea    rsi,[rip+0x707f]        # cbdc <_IO_stdin_used+0xbdc>
    5b5d:	48 89 c7             	mov    rdi,rax
    5b60:	e8 eb c9 ff ff       	call   2550 <strncmp@plt>
    5b65:	85 c0                	test   eax,eax
    5b67:	75 34                	jne    5b9d <rule_library_parser+0x2b1>
    5b69:	48 8b 45 d0          	mov    rax,QWORD PTR [rbp-0x30]
    5b6d:	48 83 c0 15          	add    rax,0x15
    5b71:	48 89 c6             	mov    rsi,rax
    5b74:	48 8d 3d c5 43 10 00 	lea    rdi,[rip+0x1043c5]        # 109f40 <sqlite_db_path>
    5b7b:	e8 f0 cb ff ff       	call   2770 <strcpy@plt>
    5b80:	48 8d 35 b9 43 10 00 	lea    rsi,[rip+0x1043b9]        # 109f40 <sqlite_db_path>
    5b87:	48 8d 3d 64 70 00 00 	lea    rdi,[rip+0x7064]        # cbf2 <_IO_stdin_used+0xbf2>
    5b8e:	b8 00 00 00 00       	mov    eax,0x0
    5b93:	e8 5a 29 00 00       	call   84f2 <livedebug>
    5b98:	e9 1e 03 00 00       	jmp    5ebb <rule_library_parser+0x5cf>
    5b9d:	48 8b 45 d0          	mov    rax,QWORD PTR [rbp-0x30]
    5ba1:	ba 0b 00 00 00       	mov    edx,0xb
    5ba6:	48 8d 35 5e 70 00 00 	lea    rsi,[rip+0x705e]        # cc0b <_IO_stdin_used+0xc0b>
    5bad:	48 89 c7             	mov    rdi,rax
    5bb0:	e8 9b c9 ff ff       	call   2550 <strncmp@plt>
    5bb5:	85 c0                	test   eax,eax
    5bb7:	75 34                	jne    5bed <rule_library_parser+0x301>
    5bb9:	48 8b 45 d0          	mov    rax,QWORD PTR [rbp-0x30]
    5bbd:	48 83 c0 0b          	add    rax,0xb
    5bc1:	48 89 c6             	mov    rsi,rax
    5bc4:	48 8d 3d a5 43 10 00 	lea    rdi,[rip+0x1043a5]        # 109f70 <input_adapter>
    5bcb:	e8 a0 cb ff ff       	call   2770 <strcpy@plt>
    5bd0:	48 8d 35 99 43 10 00 	lea    rsi,[rip+0x104399]        # 109f70 <input_adapter>
    5bd7:	48 8d 3d 3a 70 00 00 	lea    rdi,[rip+0x703a]        # cc18 <_IO_stdin_used+0xc18>
    5bde:	b8 00 00 00 00       	mov    eax,0x0
    5be3:	e8 0a 29 00 00       	call   84f2 <livedebug>
    5be8:	e9 ce 02 00 00       	jmp    5ebb <rule_library_parser+0x5cf>
    5bed:	48 8b 45 d0          	mov    rax,QWORD PTR [rbp-0x30]
    5bf1:	ba 0c 00 00 00       	mov    edx,0xc
    5bf6:	48 8d 35 4e 70 00 00 	lea    rsi,[rip+0x704e]        # cc4b <_IO_stdin_used+0xc4b>
    5bfd:	48 89 c7             	mov    rdi,rax
    5c00:	e8 4b c9 ff ff       	call   2550 <strncmp@plt>
    5c05:	85 c0                	test   eax,eax
    5c07:	75 34                	jne    5c3d <rule_library_parser+0x351>
    5c09:	48 8b 45 d0          	mov    rax,QWORD PTR [rbp-0x30]
    5c0d:	48 83 c0 0c          	add    rax,0xc
    5c11:	48 89 c6             	mov    rsi,rax
    5c14:	48 8d 3d 65 43 10 00 	lea    rdi,[rip+0x104365]        # 109f80 <output_adapter>
    5c1b:	e8 50 cb ff ff       	call   2770 <strcpy@plt>
    5c20:	48 8d 35 59 43 10 00 	lea    rsi,[rip+0x104359]        # 109f80 <output_adapter>
    5c27:	48 8d 3d 2a 70 00 00 	lea    rdi,[rip+0x702a]        # cc58 <_IO_stdin_used+0xc58>
    5c2e:	b8 00 00 00 00       	mov    eax,0x0
    5c33:	e8 ba 28 00 00       	call   84f2 <livedebug>
    5c38:	e9 7e 02 00 00       	jmp    5ebb <rule_library_parser+0x5cf>
    5c3d:	48 8b 45 d0          	mov    rax,QWORD PTR [rbp-0x30]
    5c41:	ba 05 00 00 00       	mov    edx,0x5
    5c46:	48 8d 35 3f 70 00 00 	lea    rsi,[rip+0x703f]        # cc8c <_IO_stdin_used+0xc8c>
    5c4d:	48 89 c7             	mov    rdi,rax
    5c50:	e8 fb c8 ff ff       	call   2550 <strncmp@plt>
    5c55:	85 c0                	test   eax,eax
    5c57:	0f 85 81 00 00 00    	jne    5cde <rule_library_parser+0x3f2>
    5c5d:	48 8b 45 d0          	mov    rax,QWORD PTR [rbp-0x30]
    5c61:	48 83 c0 05          	add    rax,0x5
    5c65:	48 89 c6             	mov    rsi,rax
    5c68:	48 8d 3d 23 70 00 00 	lea    rdi,[rip+0x7023]        # cc92 <_IO_stdin_used+0xc92>
    5c6f:	b8 00 00 00 00       	mov    eax,0x0
    5c74:	e8 79 28 00 00       	call   84f2 <livedebug>
    5c79:	48 8d 3d 1b 70 00 00 	lea    rdi,[rip+0x701b]        # cc9b <_IO_stdin_used+0xc9b>
    5c80:	b8 00 00 00 00       	mov    eax,0x0
    5c85:	e8 f6 c7 ff ff       	call   2480 <printf@plt>
    5c8a:	48 8b 45 d0          	mov    rax,QWORD PTR [rbp-0x30]
    5c8e:	48 83 c0 05          	add    rax,0x5
    5c92:	0f b6 00             	movzx  eax,BYTE PTR [rax]
    5c95:	0f b6 15 0b 70 00 00 	movzx  edx,BYTE PTR [rip+0x700b]        # cca7 <_IO_stdin_used+0xca7>
    5c9c:	0f b6 c0             	movzx  eax,al
    5c9f:	0f b6 d2             	movzx  edx,dl
    5ca2:	29 d0                	sub    eax,edx
    5ca4:	85 c0                	test   eax,eax
    5ca6:	75 1b                	jne    5cc3 <rule_library_parser+0x3d7>
    5ca8:	c7 05 72 b3 00 00 02 	mov    DWORD PTR [rip+0xb372],0x2        # 11024 <VIGIL_MODE>
    5caf:	00 00 00 
    5cb2:	48 8d 3d f0 6f 00 00 	lea    rdi,[rip+0x6ff0]        # cca9 <_IO_stdin_used+0xca9>
    5cb9:	e8 22 c8 ff ff       	call   24e0 <puts@plt>
    5cbe:	e9 f8 01 00 00       	jmp    5ebb <rule_library_parser+0x5cf>
    5cc3:	c7 05 57 b3 00 00 01 	mov    DWORD PTR [rip+0xb357],0x1        # 11024 <VIGIL_MODE>
    5cca:	00 00 00 
    5ccd:	48 8d 3d ec 6f 00 00 	lea    rdi,[rip+0x6fec]        # ccc0 <_IO_stdin_used+0xcc0>
    5cd4:	e8 07 c8 ff ff       	call   24e0 <puts@plt>
    5cd9:	e9 dd 01 00 00       	jmp    5ebb <rule_library_parser+0x5cf>
    5cde:	48 8b 45 d0          	mov    rax,QWORD PTR [rbp-0x30]
    5ce2:	ba 08 00 00 00       	mov    edx,0x8
    5ce7:	48 8d 35 e9 6f 00 00 	lea    rsi,[rip+0x6fe9]        # ccd7 <_IO_stdin_used+0xcd7>
    5cee:	48 89 c7             	mov    rdi,rax
    5cf1:	e8 5a c8 ff ff       	call   2550 <strncmp@plt>
    5cf6:	85 c0                	test   eax,eax
    5cf8:	75 34                	jne    5d2e <rule_library_parser+0x442>
    5cfa:	48 8b 45 d0          	mov    rax,QWORD PTR [rbp-0x30]
    5cfe:	48 83 c0 08          	add    rax,0x8
    5d02:	48 89 c6             	mov    rsi,rax
    5d05:	48 8d 3d 84 42 10 00 	lea    rdi,[rip+0x104284]        # 109f90 <local_ip>
    5d0c:	e8 5f ca ff ff       	call   2770 <strcpy@plt>
    5d11:	48 8d 35 78 42 10 00 	lea    rsi,[rip+0x104278]        # 109f90 <local_ip>
    5d18:	48 8d 3d c1 6f 00 00 	lea    rdi,[rip+0x6fc1]        # cce0 <_IO_stdin_used+0xce0>
    5d1f:	b8 00 00 00 00       	mov    eax,0x0
    5d24:	e8 c9 27 00 00       	call   84f2 <livedebug>
    5d29:	e9 8d 01 00 00       	jmp    5ebb <rule_library_parser+0x5cf>
    5d2e:	48 8b 45 d0          	mov    rax,QWORD PTR [rbp-0x30]
    5d32:	ba 06 00 00 00       	mov    edx,0x6
    5d37:	48 8d 35 bd 6f 00 00 	lea    rsi,[rip+0x6fbd]        # ccfb <_IO_stdin_used+0xcfb>
    5d3e:	48 89 c7             	mov    rdi,rax
    5d41:	e8 0a c8 ff ff       	call   2550 <strncmp@plt>
    5d46:	85 c0                	test   eax,eax
    5d48:	75 1c                	jne    5d66 <rule_library_parser+0x47a>
    5d4a:	48 8b 45 d0          	mov    rax,QWORD PTR [rbp-0x30]
    5d4e:	48 83 c0 06          	add    rax,0x6
    5d52:	48 89 c6             	mov    rsi,rax
    5d55:	48 8d 3d 54 42 10 00 	lea    rdi,[rip+0x104254]        # 109fb0 <def_gw>
    5d5c:	e8 0f ca ff ff       	call   2770 <strcpy@plt>
    5d61:	e9 55 01 00 00       	jmp    5ebb <rule_library_parser+0x5cf>
    5d66:	48 8b 45 d0          	mov    rax,QWORD PTR [rbp-0x30]
    5d6a:	ba 08 00 00 00       	mov    edx,0x8
    5d6f:	48 8d 35 8c 6f 00 00 	lea    rsi,[rip+0x6f8c]        # cd02 <_IO_stdin_used+0xd02>
    5d76:	48 89 c7             	mov    rdi,rax
    5d79:	e8 d2 c7 ff ff       	call   2550 <strncmp@plt>
    5d7e:	85 c0                	test   eax,eax
    5d80:	75 3f                	jne    5dc1 <rule_library_parser+0x4d5>
    5d82:	48 8b 45 d0          	mov    rax,QWORD PTR [rbp-0x30]
    5d86:	48 83 c0 08          	add    rax,0x8
    5d8a:	48 8d 35 d2 6d 00 00 	lea    rsi,[rip+0x6dd2]        # cb63 <_IO_stdin_used+0xb63>
    5d91:	48 89 c7             	mov    rdi,rax
    5d94:	e8 b7 c9 ff ff       	call   2750 <strcmp@plt>
    5d99:	85 c0                	test   eax,eax
    5d9b:	75 18                	jne    5db5 <rule_library_parser+0x4c9>
    5d9d:	c6 05 1e 42 10 00 01 	mov    BYTE PTR [rip+0x10421e],0x1        # 109fc2 <use_spi>
    5da4:	48 8d 3d 60 6f 00 00 	lea    rdi,[rip+0x6f60]        # cd0b <_IO_stdin_used+0xd0b>
    5dab:	e8 30 c7 ff ff       	call   24e0 <puts@plt>
    5db0:	e9 06 01 00 00       	jmp    5ebb <rule_library_parser+0x5cf>
    5db5:	c6 05 06 42 10 00 00 	mov    BYTE PTR [rip+0x104206],0x0        # 109fc2 <use_spi>
    5dbc:	e9 fa 00 00 00       	jmp    5ebb <rule_library_parser+0x5cf>
    5dc1:	48 8b 45 d0          	mov    rax,QWORD PTR [rbp-0x30]
    5dc5:	ba 09 00 00 00       	mov    edx,0x9
    5dca:	48 8d 35 53 6f 00 00 	lea    rsi,[rip+0x6f53]        # cd24 <_IO_stdin_used+0xd24>
    5dd1:	48 89 c7             	mov    rdi,rax
    5dd4:	e8 77 c7 ff ff       	call   2550 <strncmp@plt>
    5dd9:	85 c0                	test   eax,eax
    5ddb:	75 27                	jne    5e04 <rule_library_parser+0x518>
    5ddd:	48 8b 45 d0          	mov    rax,QWORD PTR [rbp-0x30]
    5de1:	48 89 c7             	mov    rdi,rax
    5de4:	e8 83 01 00 00       	call   5f6c <rstrip>
    5de9:	48 8b 45 d0          	mov    rax,QWORD PTR [rbp-0x30]
    5ded:	48 83 c0 09          	add    rax,0x9
    5df1:	48 89 c7             	mov    rdi,rax
    5df4:	e8 65 4c 00 00       	call   aa5e <homenet_toi>
    5df9:	89 05 c5 41 10 00    	mov    DWORD PTR [rip+0x1041c5],eax        # 109fc4 <homenet>
    5dff:	e9 b7 00 00 00       	jmp    5ebb <rule_library_parser+0x5cf>
    5e04:	48 8b 45 d0          	mov    rax,QWORD PTR [rbp-0x30]
    5e08:	ba 0e 00 00 00       	mov    edx,0xe
    5e0d:	48 8d 35 1a 6f 00 00 	lea    rsi,[rip+0x6f1a]        # cd2e <_IO_stdin_used+0xd2e>
    5e14:	48 89 c7             	mov    rdi,rax
    5e17:	e8 34 c7 ff ff       	call   2550 <strncmp@plt>
    5e1c:	85 c0                	test   eax,eax
    5e1e:	75 24                	jne    5e44 <rule_library_parser+0x558>
    5e20:	48 8b 45 d0          	mov    rax,QWORD PTR [rbp-0x30]
    5e24:	48 89 c7             	mov    rdi,rax
    5e27:	e8 40 01 00 00       	call   5f6c <rstrip>
    5e2c:	48 8b 45 d0          	mov    rax,QWORD PTR [rbp-0x30]
    5e30:	48 83 c0 0e          	add    rax,0xe
    5e34:	48 89 c7             	mov    rdi,rax
    5e37:	e8 22 4c 00 00       	call   aa5e <homenet_toi>
    5e3c:	89 05 86 41 10 00    	mov    DWORD PTR [rip+0x104186],eax        # 109fc8 <homenetmask>
    5e42:	eb 77                	jmp    5ebb <rule_library_parser+0x5cf>
    5e44:	48 8b 45 d0          	mov    rax,QWORD PTR [rbp-0x30]
    5e48:	ba 09 00 00 00       	mov    edx,0x9
    5e4d:	48 8d 35 e9 6e 00 00 	lea    rsi,[rip+0x6ee9]        # cd3d <_IO_stdin_used+0xd3d>
    5e54:	48 89 c7             	mov    rdi,rax
    5e57:	e8 f4 c6 ff ff       	call   2550 <strncmp@plt>
    5e5c:	85 c0                	test   eax,eax
    5e5e:	75 3f                	jne    5e9f <rule_library_parser+0x5b3>
    5e60:	48 8b 45 d0          	mov    rax,QWORD PTR [rbp-0x30]
    5e64:	48 89 c7             	mov    rdi,rax
    5e67:	e8 00 01 00 00       	call   5f6c <rstrip>
    5e6c:	48 8b 45 d0          	mov    rax,QWORD PTR [rbp-0x30]
    5e70:	48 83 c0 09          	add    rax,0x9
    5e74:	48 8d 35 cc 6e 00 00 	lea    rsi,[rip+0x6ecc]        # cd47 <_IO_stdin_used+0xd47>
    5e7b:	48 89 c7             	mov    rdi,rax
    5e7e:	e8 cd c8 ff ff       	call   2750 <strcmp@plt>
    5e83:	85 c0                	test   eax,eax
    5e85:	75 0c                	jne    5e93 <rule_library_parser+0x5a7>
    5e87:	c7 05 d7 40 10 00 04 	mov    DWORD PTR [rip+0x1040d7],0x4        # 109f68 <vigil_location>
    5e8e:	00 00 00 
    5e91:	eb 28                	jmp    5ebb <rule_library_parser+0x5cf>
    5e93:	c7 05 cb 40 10 00 03 	mov    DWORD PTR [rip+0x1040cb],0x3        # 109f68 <vigil_location>
    5e9a:	00 00 00 
    5e9d:	eb 1c                	jmp    5ebb <rule_library_parser+0x5cf>
    5e9f:	48 8b 45 d0          	mov    rax,QWORD PTR [rbp-0x30]
    5ea3:	48 89 c7             	mov    rdi,rax
    5ea6:	e8 7e 00 00 00       	call   5f29 <is_rule>
    5eab:	84 c0                	test   al,al
    5ead:	74 0c                	je     5ebb <rule_library_parser+0x5cf>
    5eaf:	48 8b 45 d0          	mov    rax,QWORD PTR [rbp-0x30]
    5eb3:	48 89 c7             	mov    rdi,rax
    5eb6:	e8 18 01 00 00       	call   5fd3 <rule_parser>
    5ebb:	48 8b 45 d0          	mov    rax,QWORD PTR [rbp-0x30]
    5ebf:	ba 08 00 00 00       	mov    edx,0x8
    5ec4:	be 00 00 00 00       	mov    esi,0x0
    5ec9:	48 89 c7             	mov    rdi,rax
    5ecc:	e8 bf c5 ff ff       	call   2490 <memset@plt>
    5ed1:	48 8b 55 d8          	mov    rdx,QWORD PTR [rbp-0x28]
    5ed5:	48 8d 4d c8          	lea    rcx,[rbp-0x38]
    5ed9:	48 8d 45 d0          	lea    rax,[rbp-0x30]
    5edd:	48 89 ce             	mov    rsi,rcx
    5ee0:	48 89 c7             	mov    rdi,rax
    5ee3:	e8 78 c8 ff ff       	call   2760 <getline@plt>
    5ee8:	48 89 45 e0          	mov    QWORD PTR [rbp-0x20],rax
    5eec:	48 83 7d e0 ff       	cmp    QWORD PTR [rbp-0x20],0xffffffffffffffff
    5ef1:	0f 85 6a fa ff ff    	jne    5961 <rule_library_parser+0x75>
    5ef7:	8b 05 27 b1 00 00    	mov    eax,DWORD PTR [rip+0xb127]        # 11024 <VIGIL_MODE>
    5efd:	3d ff ff 00 00       	cmp    eax,0xffff
    5f02:	75 0a                	jne    5f0e <rule_library_parser+0x622>
    5f04:	c7 05 16 b1 00 00 01 	mov    DWORD PTR [rip+0xb116],0x1        # 11024 <VIGIL_MODE>
    5f0b:	00 00 00 
    5f0e:	90                   	nop
    5f0f:	48 8b 45 e8          	mov    rax,QWORD PTR [rbp-0x18]
    5f13:	64 48 2b 04 25 28 00 	sub    rax,QWORD PTR fs:0x28
    5f1a:	00 00 
    5f1c:	74 05                	je     5f23 <rule_library_parser+0x637>
    5f1e:	e8 1d c8 ff ff       	call   2740 <__stack_chk_fail@plt>
    5f23:	48 8b 5d f8          	mov    rbx,QWORD PTR [rbp-0x8]
    5f27:	c9                   	leave  
    5f28:	c3                   	ret    

0000000000005f29 <is_rule>:
    5f29:	f3 0f 1e fa          	endbr64 
    5f2d:	55                   	push   rbp
    5f2e:	48 89 e5             	mov    rbp,rsp
    5f31:	48 89 7d f8          	mov    QWORD PTR [rbp-0x8],rdi
    5f35:	48 8b 45 f8          	mov    rax,QWORD PTR [rbp-0x8]
    5f39:	0f b6 00             	movzx  eax,BYTE PTR [rax]
    5f3c:	3c 24                	cmp    al,0x24
    5f3e:	0f 94 c0             	sete   al
    5f41:	5d                   	pop    rbp
    5f42:	c3                   	ret    

0000000000005f43 <is_comment>:
    5f43:	f3 0f 1e fa          	endbr64 
    5f47:	55                   	push   rbp
    5f48:	48 89 e5             	mov    rbp,rsp
    5f4b:	48 83 ec 10          	sub    rsp,0x10
    5f4f:	48 89 7d f8          	mov    QWORD PTR [rbp-0x8],rdi
    5f53:	48 8b 45 f8          	mov    rax,QWORD PTR [rbp-0x8]
    5f57:	be 23 00 00 00       	mov    esi,0x23
    5f5c:	48 89 c7             	mov    rdi,rax
    5f5f:	e8 8c c7 ff ff       	call   26f0 <strchr@plt>
    5f64:	48 85 c0             	test   rax,rax
    5f67:	0f 95 c0             	setne  al
    5f6a:	c9                   	leave  
    5f6b:	c3                   	ret    

0000000000005f6c <rstrip>:
    5f6c:	f3 0f 1e fa          	endbr64 
    5f70:	55                   	push   rbp
    5f71:	48 89 e5             	mov    rbp,rsp
    5f74:	48 83 ec 10          	sub    rsp,0x10
    5f78:	48 89 7d f8          	mov    QWORD PTR [rbp-0x8],rdi
    5f7c:	48 8b 45 f8          	mov    rax,QWORD PTR [rbp-0x8]
    5f80:	48 8d 35 bf 6b 00 00 	lea    rsi,[rip+0x6bbf]        # cb46 <_IO_stdin_used+0xb46>
    5f87:	48 89 c7             	mov    rdi,rax
    5f8a:	e8 41 c8 ff ff       	call   27d0 <strcspn@plt>
    5f8f:	48 8b 55 f8          	mov    rdx,QWORD PTR [rbp-0x8]
    5f93:	48 01 d0             	add    rax,rdx
    5f96:	c6 00 00             	mov    BYTE PTR [rax],0x0
    5f99:	90                   	nop
    5f9a:	c9                   	leave  
    5f9b:	c3                   	ret    

0000000000005f9c <syntax_error>:
    5f9c:	f3 0f 1e fa          	endbr64 
    5fa0:	55                   	push   rbp
    5fa1:	48 89 e5             	mov    rbp,rsp
    5fa4:	48 83 ec 10          	sub    rsp,0x10
    5fa8:	48 89 7d f8          	mov    QWORD PTR [rbp-0x8],rdi
    5fac:	89 75 f4             	mov    DWORD PTR [rbp-0xc],esi
    5faf:	48 8b 55 f8          	mov    rdx,QWORD PTR [rbp-0x8]
    5fb3:	8b 45 f4             	mov    eax,DWORD PTR [rbp-0xc]
    5fb6:	89 c6                	mov    esi,eax
    5fb8:	48 8d 3d 91 6d 00 00 	lea    rdi,[rip+0x6d91]        # cd50 <_IO_stdin_used+0xd50>
    5fbf:	b8 00 00 00 00       	mov    eax,0x0
    5fc4:	e8 b7 c4 ff ff       	call   2480 <printf@plt>
    5fc9:	bf 01 00 00 00       	mov    edi,0x1
    5fce:	e8 2d c5 ff ff       	call   2500 <exit@plt>

0000000000005fd3 <rule_parser>:
    5fd3:	f3 0f 1e fa          	endbr64 
    5fd7:	55                   	push   rbp
    5fd8:	48 89 e5             	mov    rbp,rsp
    5fdb:	48 83 ec 40          	sub    rsp,0x40
    5fdf:	48 89 7d c8          	mov    QWORD PTR [rbp-0x38],rdi
    5fe3:	64 48 8b 04 25 28 00 	mov    rax,QWORD PTR fs:0x28
    5fea:	00 00 
    5fec:	48 89 45 f8          	mov    QWORD PTR [rbp-0x8],rax
    5ff0:	31 c0                	xor    eax,eax
    5ff2:	48 8b 45 c8          	mov    rax,QWORD PTR [rbp-0x38]
    5ff6:	48 83 c0 01          	add    rax,0x1
    5ffa:	48 89 45 e0          	mov    QWORD PTR [rbp-0x20],rax
    5ffe:	48 8b 45 e0          	mov    rax,QWORD PTR [rbp-0x20]
    6002:	48 8d 35 0f 6b 00 00 	lea    rsi,[rip+0x6b0f]        # cb18 <_IO_stdin_used+0xb18>
    6009:	48 89 c7             	mov    rdi,rax
    600c:	e8 5f c5 ff ff       	call   2570 <fopen@plt>
    6011:	48 89 45 e8          	mov    QWORD PTR [rbp-0x18],rax
    6015:	48 83 7d e8 00       	cmp    QWORD PTR [rbp-0x18],0x0
    601a:	75 22                	jne    603e <rule_parser+0x6b>
    601c:	48 8b 45 e0          	mov    rax,QWORD PTR [rbp-0x20]
    6020:	48 89 c6             	mov    rsi,rax
    6023:	48 8d 3d 46 6d 00 00 	lea    rdi,[rip+0x6d46]        # cd70 <_IO_stdin_used+0xd70>
    602a:	b8 00 00 00 00       	mov    eax,0x0
    602f:	e8 4c c4 ff ff       	call   2480 <printf@plt>
    6034:	bf 01 00 00 00       	mov    edi,0x1
    6039:	e8 c2 c4 ff ff       	call   2500 <exit@plt>
    603e:	48 8b 45 e0          	mov    rax,QWORD PTR [rbp-0x20]
    6042:	48 89 c6             	mov    rsi,rax
    6045:	48 8d 3d 57 6d 00 00 	lea    rdi,[rip+0x6d57]        # cda3 <_IO_stdin_used+0xda3>
    604c:	b8 00 00 00 00       	mov    eax,0x0
    6051:	e8 2a c4 ff ff       	call   2480 <printf@plt>
    6056:	48 c7 45 d0 00 00 00 	mov    QWORD PTR [rbp-0x30],0x0
    605d:	00 
    605e:	48 c7 45 d8 00 00 00 	mov    QWORD PTR [rbp-0x28],0x0
    6065:	00 
    6066:	eb 54                	jmp    60bc <rule_parser+0xe9>
    6068:	48 8b 45 d8          	mov    rax,QWORD PTR [rbp-0x28]
    606c:	48 89 c7             	mov    rdi,rax
    606f:	e8 cf fe ff ff       	call   5f43 <is_comment>
    6074:	84 c0                	test   al,al
    6076:	74 02                	je     607a <rule_parser+0xa7>
    6078:	eb 42                	jmp    60bc <rule_parser+0xe9>
    607a:	48 8b 45 d8          	mov    rax,QWORD PTR [rbp-0x28]
    607e:	48 89 c7             	mov    rdi,rax
    6081:	e8 e6 fe ff ff       	call   5f6c <rstrip>
    6086:	48 8b 45 d8          	mov    rax,QWORD PTR [rbp-0x28]
    608a:	0f b6 00             	movzx  eax,BYTE PTR [rax]
    608d:	0f b6 c0             	movzx  eax,al
    6090:	f7 d8                	neg    eax
    6092:	85 c0                	test   eax,eax
    6094:	75 02                	jne    6098 <rule_parser+0xc5>
    6096:	eb 24                	jmp    60bc <rule_parser+0xe9>
    6098:	48 8b 45 d8          	mov    rax,QWORD PTR [rbp-0x28]
    609c:	48 8d 35 11 6d 00 00 	lea    rsi,[rip+0x6d11]        # cdb4 <_IO_stdin_used+0xdb4>
    60a3:	48 89 c7             	mov    rdi,rax
    60a6:	e8 c5 c5 ff ff       	call   2670 <strstr@plt>
    60ab:	48 85 c0             	test   rax,rax
    60ae:	74 0c                	je     60bc <rule_parser+0xe9>
    60b0:	48 8b 45 d8          	mov    rax,QWORD PTR [rbp-0x28]
    60b4:	48 89 c7             	mov    rdi,rax
    60b7:	e8 5e 35 00 00       	call   961a <line_parser>
    60bc:	48 8b 55 e8          	mov    rdx,QWORD PTR [rbp-0x18]
    60c0:	48 8d 4d d0          	lea    rcx,[rbp-0x30]
    60c4:	48 8d 45 d8          	lea    rax,[rbp-0x28]
    60c8:	48 89 ce             	mov    rsi,rcx
    60cb:	48 89 c7             	mov    rdi,rax
    60ce:	e8 8d c6 ff ff       	call   2760 <getline@plt>
    60d3:	48 89 45 f0          	mov    QWORD PTR [rbp-0x10],rax
    60d7:	48 83 7d f0 ff       	cmp    QWORD PTR [rbp-0x10],0xffffffffffffffff
    60dc:	75 8a                	jne    6068 <rule_parser+0x95>
    60de:	0f b6 05 3b 3e 10 00 	movzx  eax,BYTE PTR [rip+0x103e3b]        # 109f20 <debug_mode>
    60e5:	84 c0                	test   al,al
    60e7:	74 18                	je     6101 <rule_parser+0x12e>
    60e9:	48 8b 45 e0          	mov    rax,QWORD PTR [rbp-0x20]
    60ed:	48 89 c6             	mov    rsi,rax
    60f0:	48 8d 3d c3 6c 00 00 	lea    rdi,[rip+0x6cc3]        # cdba <_IO_stdin_used+0xdba>
    60f7:	b8 00 00 00 00       	mov    eax,0x0
    60fc:	e8 7f c3 ff ff       	call   2480 <printf@plt>
    6101:	90                   	nop
    6102:	48 8b 45 f8          	mov    rax,QWORD PTR [rbp-0x8]
    6106:	64 48 2b 04 25 28 00 	sub    rax,QWORD PTR fs:0x28
    610d:	00 00 
    610f:	74 05                	je     6116 <rule_parser+0x143>
    6111:	e8 2a c6 ff ff       	call   2740 <__stack_chk_fail@plt>
    6116:	c9                   	leave  
    6117:	c3                   	ret    

0000000000006118 <deny_conf_parser>:
    6118:	f3 0f 1e fa          	endbr64 
    611c:	55                   	push   rbp
    611d:	48 89 e5             	mov    rbp,rsp
    6120:	48 83 ec 50          	sub    rsp,0x50
    6124:	48 89 7d b8          	mov    QWORD PTR [rbp-0x48],rdi
    6128:	64 48 8b 04 25 28 00 	mov    rax,QWORD PTR fs:0x28
    612f:	00 00 
    6131:	48 89 45 f8          	mov    QWORD PTR [rbp-0x8],rax
    6135:	31 c0                	xor    eax,eax
    6137:	48 8b 45 b8          	mov    rax,QWORD PTR [rbp-0x48]
    613b:	48 8d 35 d6 69 00 00 	lea    rsi,[rip+0x69d6]        # cb18 <_IO_stdin_used+0xb18>
    6142:	48 89 c7             	mov    rdi,rax
    6145:	e8 26 c4 ff ff       	call   2570 <fopen@plt>
    614a:	48 89 45 d8          	mov    QWORD PTR [rbp-0x28],rax
    614e:	48 83 7d d8 00       	cmp    QWORD PTR [rbp-0x28],0x0
    6153:	75 22                	jne    6177 <deny_conf_parser+0x5f>
    6155:	48 8b 45 b8          	mov    rax,QWORD PTR [rbp-0x48]
    6159:	48 89 c6             	mov    rsi,rax
    615c:	48 8d 3d 6d 6c 00 00 	lea    rdi,[rip+0x6c6d]        # cdd0 <_IO_stdin_used+0xdd0>
    6163:	b8 00 00 00 00       	mov    eax,0x0
    6168:	e8 13 c3 ff ff       	call   2480 <printf@plt>
    616d:	bf 01 00 00 00       	mov    edi,0x1
    6172:	e8 89 c3 ff ff       	call   2500 <exit@plt>
    6177:	48 c7 45 c8 00 00 00 	mov    QWORD PTR [rbp-0x38],0x0
    617e:	00 
    617f:	48 c7 45 d0 00 00 00 	mov    QWORD PTR [rbp-0x30],0x0
    6186:	00 
    6187:	e9 9a 00 00 00       	jmp    6226 <deny_conf_parser+0x10e>
    618c:	48 8b 45 c8          	mov    rax,QWORD PTR [rbp-0x38]
    6190:	48 89 c7             	mov    rdi,rax
    6193:	e8 d4 fd ff ff       	call   5f6c <rstrip>
    6198:	48 8b 45 c8          	mov    rax,QWORD PTR [rbp-0x38]
    619c:	48 89 c7             	mov    rdi,rax
    619f:	e8 9f fd ff ff       	call   5f43 <is_comment>
    61a4:	84 c0                	test   al,al
    61a6:	74 02                	je     61aa <deny_conf_parser+0x92>
    61a8:	eb 7c                	jmp    6226 <deny_conf_parser+0x10e>
    61aa:	48 8b 45 c8          	mov    rax,QWORD PTR [rbp-0x38]
    61ae:	0f b6 00             	movzx  eax,BYTE PTR [rax]
    61b1:	0f b6 c0             	movzx  eax,al
    61b4:	f7 d8                	neg    eax
    61b6:	85 c0                	test   eax,eax
    61b8:	75 02                	jne    61bc <deny_conf_parser+0xa4>
    61ba:	eb 6a                	jmp    6226 <deny_conf_parser+0x10e>
    61bc:	48 8b 45 c8          	mov    rax,QWORD PTR [rbp-0x38]
    61c0:	48 8d 35 3a 6c 00 00 	lea    rsi,[rip+0x6c3a]        # ce01 <_IO_stdin_used+0xe01>
    61c7:	48 89 c7             	mov    rdi,rax
    61ca:	e8 a1 c4 ff ff       	call   2670 <strstr@plt>
    61cf:	48 85 c0             	test   rax,rax
    61d2:	74 52                	je     6226 <deny_conf_parser+0x10e>
    61d4:	8b 05 36 ae 00 00    	mov    eax,DWORD PTR [rip+0xae36]        # 11010 <blk_ipv4_len>
    61da:	83 c0 01             	add    eax,0x1
    61dd:	89 05 2d ae 00 00    	mov    DWORD PTR [rip+0xae2d],eax        # 11010 <blk_ipv4_len>
    61e3:	8b 05 27 ae 00 00    	mov    eax,DWORD PTR [rip+0xae27]        # 11010 <blk_ipv4_len>
    61e9:	48 63 d0             	movsxd rdx,eax
    61ec:	48 89 d0             	mov    rax,rdx
    61ef:	48 c1 e0 03          	shl    rax,0x3
    61f3:	48 01 d0             	add    rax,rdx
    61f6:	48 01 c0             	add    rax,rax
    61f9:	48 8d 15 e0 d0 0e 00 	lea    rdx,[rip+0xed0e0]        # f32e0 <blocked_ipv4_addrs>
    6200:	48 01 d0             	add    rax,rdx
    6203:	48 89 45 e8          	mov    QWORD PTR [rbp-0x18],rax
    6207:	48 8b 45 c8          	mov    rax,QWORD PTR [rbp-0x38]
    620b:	48 83 c0 05          	add    rax,0x5
    620f:	48 89 45 f0          	mov    QWORD PTR [rbp-0x10],rax
    6213:	48 8b 45 e8          	mov    rax,QWORD PTR [rbp-0x18]
    6217:	48 8b 55 f0          	mov    rdx,QWORD PTR [rbp-0x10]
    621b:	48 89 d6             	mov    rsi,rdx
    621e:	48 89 c7             	mov    rdi,rax
    6221:	e8 4a c5 ff ff       	call   2770 <strcpy@plt>
    6226:	48 8b 55 d8          	mov    rdx,QWORD PTR [rbp-0x28]
    622a:	48 8d 4d d0          	lea    rcx,[rbp-0x30]
    622e:	48 8d 45 c8          	lea    rax,[rbp-0x38]
    6232:	48 89 ce             	mov    rsi,rcx
    6235:	48 89 c7             	mov    rdi,rax
    6238:	e8 23 c5 ff ff       	call   2760 <getline@plt>
    623d:	48 89 45 e0          	mov    QWORD PTR [rbp-0x20],rax
    6241:	48 83 7d e0 ff       	cmp    QWORD PTR [rbp-0x20],0xffffffffffffffff
    6246:	0f 85 40 ff ff ff    	jne    618c <deny_conf_parser+0x74>
    624c:	48 8b 45 c8          	mov    rax,QWORD PTR [rbp-0x38]
    6250:	48 85 c0             	test   rax,rax
    6253:	74 0c                	je     6261 <deny_conf_parser+0x149>
    6255:	48 8b 45 c8          	mov    rax,QWORD PTR [rbp-0x38]
    6259:	48 89 c7             	mov    rdi,rax
    625c:	e8 8f c3 ff ff       	call   25f0 <free@plt>
    6261:	90                   	nop
    6262:	48 8b 45 f8          	mov    rax,QWORD PTR [rbp-0x8]
    6266:	64 48 2b 04 25 28 00 	sub    rax,QWORD PTR fs:0x28
    626d:	00 00 
    626f:	74 05                	je     6276 <deny_conf_parser+0x15e>
    6271:	e8 ca c4 ff ff       	call   2740 <__stack_chk_fail@plt>
    6276:	c9                   	leave  
    6277:	c3                   	ret    

0000000000006278 <host_mon_parser>:
    6278:	f3 0f 1e fa          	endbr64 
    627c:	55                   	push   rbp
    627d:	48 89 e5             	mov    rbp,rsp
    6280:	48 83 ec 10          	sub    rsp,0x10
    6284:	48 8b 05 ad ad 00 00 	mov    rax,QWORD PTR [rip+0xadad]        # 11038 <default_host_conf>
    628b:	48 8d 35 86 68 00 00 	lea    rsi,[rip+0x6886]        # cb18 <_IO_stdin_used+0xb18>
    6292:	48 89 c7             	mov    rdi,rax
    6295:	e8 d6 c2 ff ff       	call   2570 <fopen@plt>
    629a:	48 89 45 f8          	mov    QWORD PTR [rbp-0x8],rax
    629e:	48 83 7d f8 00       	cmp    QWORD PTR [rbp-0x8],0x0
    62a3:	75 25                	jne    62ca <host_mon_parser+0x52>
    62a5:	48 8b 05 8c ad 00 00 	mov    rax,QWORD PTR [rip+0xad8c]        # 11038 <default_host_conf>
    62ac:	48 89 c6             	mov    rsi,rax
    62af:	48 8d 3d 50 6b 00 00 	lea    rdi,[rip+0x6b50]        # ce06 <_IO_stdin_used+0xe06>
    62b6:	b8 00 00 00 00       	mov    eax,0x0
    62bb:	e8 c0 c1 ff ff       	call   2480 <printf@plt>
    62c0:	bf 01 00 00 00       	mov    edi,0x1
    62c5:	e8 36 c2 ff ff       	call   2500 <exit@plt>
    62ca:	48 8b 45 f8          	mov    rax,QWORD PTR [rbp-0x8]
    62ce:	48 89 c7             	mov    rdi,rax
    62d1:	e8 da c4 ff ff       	call   27b0 <fclose@plt>
    62d6:	90                   	nop
    62d7:	c9                   	leave  
    62d8:	c3                   	ret    

00000000000062d9 <rule_app>:
    62d9:	f3 0f 1e fa          	endbr64 
    62dd:	55                   	push   rbp
    62de:	48 89 e5             	mov    rbp,rsp
    62e1:	48 83 ec 20          	sub    rsp,0x20
    62e5:	48 89 7d e8          	mov    QWORD PTR [rbp-0x18],rdi
    62e9:	48 89 75 e0          	mov    QWORD PTR [rbp-0x20],rsi
    62ed:	48 8b 55 e0          	mov    rdx,QWORD PTR [rbp-0x20]
    62f1:	48 8b 45 e8          	mov    rax,QWORD PTR [rbp-0x18]
    62f5:	48 89 d6             	mov    rsi,rdx
    62f8:	48 89 c7             	mov    rdi,rax
    62fb:	e8 e9 02 00 00       	call   65e9 <r_engine>
    6300:	88 45 fd             	mov    BYTE PTR [rbp-0x3],al
    6303:	48 8b 55 e0          	mov    rdx,QWORD PTR [rbp-0x20]
    6307:	48 8b 45 e8          	mov    rax,QWORD PTR [rbp-0x18]
    630b:	48 89 d6             	mov    rsi,rdx
    630e:	48 89 c7             	mov    rdi,rax
    6311:	e8 36 46 00 00       	call   a94c <d_engine>
    6316:	88 45 fe             	mov    BYTE PTR [rbp-0x2],al
    6319:	48 8b 45 e8          	mov    rax,QWORD PTR [rbp-0x18]
    631d:	48 8b 88 78 03 00 00 	mov    rcx,QWORD PTR [rax+0x378]
    6324:	48 8b 55 e8          	mov    rdx,QWORD PTR [rbp-0x18]
    6328:	48 8b 45 e0          	mov    rax,QWORD PTR [rbp-0x20]
    632c:	48 89 d6             	mov    rsi,rdx
    632f:	48 89 c7             	mov    rdi,rax
    6332:	ff d1                	call   rcx
    6334:	88 45 ff             	mov    BYTE PTR [rbp-0x1],al
    6337:	80 7d ff 00          	cmp    BYTE PTR [rbp-0x1],0x0
    633b:	74 40                	je     637d <rule_app+0xa4>
    633d:	80 7d fd 00          	cmp    BYTE PTR [rbp-0x3],0x0
    6341:	74 3a                	je     637d <rule_app+0xa4>
    6343:	80 7d fe 00          	cmp    BYTE PTR [rbp-0x2],0x0
    6347:	74 34                	je     637d <rule_app+0xa4>
    6349:	48 8b 45 e8          	mov    rax,QWORD PTR [rbp-0x18]
    634d:	4c 8b 80 80 03 00 00 	mov    r8,QWORD PTR [rax+0x380]
    6354:	48 8b 4d e8          	mov    rcx,QWORD PTR [rbp-0x18]
    6358:	48 8b 45 e0          	mov    rax,QWORD PTR [rbp-0x20]
    635c:	ba 00 00 00 00       	mov    edx,0x0
    6361:	48 89 ce             	mov    rsi,rcx
    6364:	48 89 c7             	mov    rdi,rax
    6367:	41 ff d0             	call   r8
    636a:	48 8b 45 e8          	mov    rax,QWORD PTR [rbp-0x18]
    636e:	8b 40 3c             	mov    eax,DWORD PTR [rax+0x3c]
    6371:	8d 50 01             	lea    edx,[rax+0x1]
    6374:	48 8b 45 e8          	mov    rax,QWORD PTR [rbp-0x18]
    6378:	89 50 3c             	mov    DWORD PTR [rax+0x3c],edx
    637b:	eb 17                	jmp    6394 <rule_app+0xbb>
    637d:	8b 05 a1 ac 00 00    	mov    eax,DWORD PTR [rip+0xaca1]        # 11024 <VIGIL_MODE>
    6383:	83 f8 02             	cmp    eax,0x2
    6386:	75 0c                	jne    6394 <rule_app+0xbb>
    6388:	48 8b 45 e0          	mov    rax,QWORD PTR [rbp-0x20]
    638c:	48 89 c7             	mov    rdi,rax
    638f:	e8 3d 22 00 00       	call   85d1 <forward_packet>
    6394:	90                   	nop
    6395:	c9                   	leave  
    6396:	c3                   	ret    

0000000000006397 <rulemgr>:
    6397:	f3 0f 1e fa          	endbr64 
    639b:	55                   	push   rbp
    639c:	48 89 e5             	mov    rbp,rsp
    639f:	48 83 ec 20          	sub    rsp,0x20
    63a3:	48 89 7d e8          	mov    QWORD PTR [rbp-0x18],rdi
    63a7:	c7 45 f4 00 00 00 00 	mov    DWORD PTR [rbp-0xc],0x0
    63ae:	e9 23 02 00 00       	jmp    65d6 <rulemgr+0x23f>
    63b3:	8b 45 f4             	mov    eax,DWORD PTR [rbp-0xc]
    63b6:	8d 50 01             	lea    edx,[rax+0x1]
    63b9:	89 55 f4             	mov    DWORD PTR [rbp-0xc],edx
    63bc:	48 98                	cdqe   
    63be:	48 69 c0 88 03 00 00 	imul   rax,rax,0x388
    63c5:	48 8d 15 14 af 00 00 	lea    rdx,[rip+0xaf14]        # 112e0 <rules>
    63cc:	48 01 d0             	add    rax,rdx
    63cf:	48 89 45 f8          	mov    QWORD PTR [rbp-0x8],rax
    63d3:	0f b6 05 f2 3b 10 00 	movzx  eax,BYTE PTR [rip+0x103bf2]        # 109fcc <in_test_mode>
    63da:	84 c0                	test   al,al
    63dc:	74 30                	je     640e <rulemgr+0x77>
    63de:	48 8b 45 f8          	mov    rax,QWORD PTR [rbp-0x8]
    63e2:	8b 40 10             	mov    eax,DWORD PTR [rax+0x10]
    63e5:	83 f8 46             	cmp    eax,0x46
    63e8:	75 0d                	jne    63f7 <rulemgr+0x60>
    63ea:	48 8b 45 f8          	mov    rax,QWORD PTR [rbp-0x8]
    63ee:	c7 40 10 45 00 00 00 	mov    DWORD PTR [rax+0x10],0x45
    63f5:	eb 17                	jmp    640e <rulemgr+0x77>
    63f7:	48 8b 45 f8          	mov    rax,QWORD PTR [rbp-0x8]
    63fb:	8b 40 10             	mov    eax,DWORD PTR [rax+0x10]
    63fe:	83 f8 45             	cmp    eax,0x45
    6401:	75 0b                	jne    640e <rulemgr+0x77>
